
bin/libfasttrack.so:     file format elf64-x86-64


Disassembly of section .plt:

0000000072005a08 <decode@plt-0x10>:
    72005a08:	ff 35 7a 58 21 00    	pushq  0x21587a(%rip)        # 7221b288 <_GLOBAL_OFFSET_TABLE_+0x8>
    72005a0e:	ff 25 7c 58 21 00    	jmpq   *0x21587c(%rip)        # 7221b290 <_GLOBAL_OFFSET_TABLE_+0x10>
    72005a14:	0f 1f 40 00          	nopl   0x0(%rax)

0000000072005a18 <decode@plt>:
    72005a18:	ff 25 7a 58 21 00    	jmpq   *0x21587a(%rip)        # 7221b298 <_GLOBAL_OFFSET_TABLE_+0x18>
    72005a1e:	68 00 00 00 00       	pushq  $0x0
    72005a23:	e9 e0 ff ff ff       	jmpq   72005a08 <decode@plt-0x10>

0000000072005a28 <umbra_exit@plt>:
    72005a28:	ff 25 72 58 21 00    	jmpq   *0x215872(%rip)        # 7221b2a0 <_GLOBAL_OFFSET_TABLE_+0x20>
    72005a2e:	68 01 00 00 00       	pushq  $0x1
    72005a33:	e9 d0 ff ff ff       	jmpq   72005a08 <decode@plt-0x10>

0000000072005a38 <dr_lookup_module_by_name@plt>:
    72005a38:	ff 25 6a 58 21 00    	jmpq   *0x21586a(%rip)        # 7221b2a8 <_GLOBAL_OFFSET_TABLE_+0x28>
    72005a3e:	68 02 00 00 00       	pushq  $0x2
    72005a43:	e9 c0 ff ff ff       	jmpq   72005a08 <decode@plt-0x10>

0000000072005a48 <opnd_get_scale@plt>:
    72005a48:	ff 25 62 58 21 00    	jmpq   *0x215862(%rip)        # 7221b2b0 <_GLOBAL_OFFSET_TABLE_+0x30>
    72005a4e:	68 03 00 00 00       	pushq  $0x3
    72005a53:	e9 b0 ff ff ff       	jmpq   72005a08 <decode@plt-0x10>

0000000072005a58 <dr_close_file@plt>:
    72005a58:	ff 25 5a 58 21 00    	jmpq   *0x21585a(%rip)        # 7221b2b8 <_GLOBAL_OFFSET_TABLE_+0x38>
    72005a5e:	68 04 00 00 00       	pushq  $0x4
    72005a63:	e9 a0 ff ff ff       	jmpq   72005a08 <decode@plt-0x10>

0000000072005a68 <hashtable_iterator_advance@plt>:
    72005a68:	ff 25 52 58 21 00    	jmpq   *0x215852(%rip)        # 7221b2c0 <_GLOBAL_OFFSET_TABLE_+0x40>
    72005a6e:	68 05 00 00 00       	pushq  $0x5
    72005a73:	e9 90 ff ff ff       	jmpq   72005a08 <decode@plt-0x10>

0000000072005a78 <analyzer_basic_block@plt>:
    72005a78:	ff 25 4a 58 21 00    	jmpq   *0x21584a(%rip)        # 7221b2c8 <_GLOBAL_OFFSET_TABLE_+0x48>
    72005a7e:	68 06 00 00 00       	pushq  $0x6
    72005a83:	e9 80 ff ff ff       	jmpq   72005a08 <decode@plt-0x10>

0000000072005a88 <shadow_pre_syscall@plt>:
    72005a88:	ff 25 42 58 21 00    	jmpq   *0x215842(%rip)        # 7221b2d0 <_GLOBAL_OFFSET_TABLE_+0x50>
    72005a8e:	68 07 00 00 00       	pushq  $0x7
    72005a93:	e9 70 ff ff ff       	jmpq   72005a08 <decode@plt-0x10>

0000000072005a98 <table_get_bb@plt>:
    72005a98:	ff 25 3a 58 21 00    	jmpq   *0x21583a(%rip)        # 7221b2d8 <_GLOBAL_OFFSET_TABLE_+0x58>
    72005a9e:	68 08 00 00 00       	pushq  $0x8
    72005aa3:	e9 60 ff ff ff       	jmpq   72005a08 <decode@plt-0x10>

0000000072005aa8 <printf@plt>:
    72005aa8:	ff 25 32 58 21 00    	jmpq   *0x215832(%rip)        # 7221b2e0 <_GLOBAL_OFFSET_TABLE_+0x60>
    72005aae:	68 09 00 00 00       	pushq  $0x9
    72005ab3:	e9 50 ff ff ff       	jmpq   72005a08 <decode@plt-0x10>

0000000072005ab8 <dr_thread_free@plt>:
    72005ab8:	ff 25 2a 58 21 00    	jmpq   *0x21582a(%rip)        # 7221b2e8 <_GLOBAL_OFFSET_TABLE_+0x68>
    72005abe:	68 0a 00 00 00       	pushq  $0xa
    72005ac3:	e9 40 ff ff ff       	jmpq   72005a08 <decode@plt-0x10>

0000000072005ac8 <cfg_bb_get_first_outgoing_edge@plt>:
    72005ac8:	ff 25 22 58 21 00    	jmpq   *0x215822(%rip)        # 7221b2f0 <_GLOBAL_OFFSET_TABLE_+0x70>
    72005ace:	68 0b 00 00 00       	pushq  $0xb
    72005ad3:	e9 30 ff ff ff       	jmpq   72005a08 <decode@plt-0x10>

0000000072005ad8 <instr_get_target@plt>:
    72005ad8:	ff 25 1a 58 21 00    	jmpq   *0x21581a(%rip)        # 7221b2f8 <_GLOBAL_OFFSET_TABLE_+0x78>
    72005ade:	68 0c 00 00 00       	pushq  $0xc
    72005ae3:	e9 20 ff ff ff       	jmpq   72005a08 <decode@plt-0x10>

0000000072005ae8 <shadow_module_load@plt>:
    72005ae8:	ff 25 12 58 21 00    	jmpq   *0x215812(%rip)        # 7221b300 <_GLOBAL_OFFSET_TABLE_+0x80>
    72005aee:	68 0d 00 00 00       	pushq  $0xd
    72005af3:	e9 10 ff ff ff       	jmpq   72005a08 <decode@plt-0x10>

0000000072005af8 <umbra_open_thread_log@plt>:
    72005af8:	ff 25 0a 58 21 00    	jmpq   *0x21580a(%rip)        # 7221b308 <_GLOBAL_OFFSET_TABLE_+0x88>
    72005afe:	68 0e 00 00 00       	pushq  $0xe
    72005b03:	e9 00 ff ff ff       	jmpq   72005a08 <decode@plt-0x10>

0000000072005b08 <instrlist_meta_append@plt>:
    72005b08:	ff 25 02 58 21 00    	jmpq   *0x215802(%rip)        # 7221b310 <_GLOBAL_OFFSET_TABLE_+0x90>
    72005b0e:	68 0f 00 00 00       	pushq  $0xf
    72005b13:	e9 f0 fe ff ff       	jmpq   72005a08 <decode@plt-0x10>

0000000072005b18 <umbra_client_init@plt>:
    72005b18:	ff 25 fa 57 21 00    	jmpq   *0x2157fa(%rip)        # 7221b318 <_GLOBAL_OFFSET_TABLE_+0x98>
    72005b1e:	68 10 00 00 00       	pushq  $0x10
    72005b23:	e9 e0 fe ff ff       	jmpq   72005a08 <decode@plt-0x10>

0000000072005b28 <instr_get_app_pc@plt>:
    72005b28:	ff 25 f2 57 21 00    	jmpq   *0x2157f2(%rip)        # 7221b320 <_GLOBAL_OFFSET_TABLE_+0xa0>
    72005b2e:	68 11 00 00 00       	pushq  $0x11
    72005b33:	e9 d0 fe ff ff       	jmpq   72005a08 <decode@plt-0x10>

0000000072005b38 <table_alloc_bytes@plt>:
    72005b38:	ff 25 ea 57 21 00    	jmpq   *0x2157ea(%rip)        # 7221b328 <_GLOBAL_OFFSET_TABLE_+0xa8>
    72005b3e:	68 12 00 00 00       	pushq  $0x12
    72005b43:	e9 c0 fe ff ff       	jmpq   72005a08 <decode@plt-0x10>

0000000072005b48 <addr_in_ref_cache@plt>:
    72005b48:	ff 25 e2 57 21 00    	jmpq   *0x2157e2(%rip)        # 7221b330 <_GLOBAL_OFFSET_TABLE_+0xb0>
    72005b4e:	68 13 00 00 00       	pushq  $0x13
    72005b53:	e9 b0 fe ff ff       	jmpq   72005a08 <decode@plt-0x10>

0000000072005b58 <memory_map_app_lookup@plt>:
    72005b58:	ff 25 da 57 21 00    	jmpq   *0x2157da(%rip)        # 7221b338 <_GLOBAL_OFFSET_TABLE_+0xb8>
    72005b5e:	68 14 00 00 00       	pushq  $0x14
    72005b63:	e9 a0 fe ff ff       	jmpq   72005a08 <decode@plt-0x10>

0000000072005b68 <memmove@plt>:
    72005b68:	ff 25 d2 57 21 00    	jmpq   *0x2157d2(%rip)        # 7221b340 <_GLOBAL_OFFSET_TABLE_+0xc0>
    72005b6e:	68 15 00 00 00       	pushq  $0x15
    72005b73:	e9 90 fe ff ff       	jmpq   72005a08 <decode@plt-0x10>

0000000072005b78 <dr_global_free@plt>:
    72005b78:	ff 25 ca 57 21 00    	jmpq   *0x2157ca(%rip)        # 7221b348 <_GLOBAL_OFFSET_TABLE_+0xc8>
    72005b7e:	68 16 00 00 00       	pushq  $0x16
    72005b83:	e9 80 fe ff ff       	jmpq   72005a08 <decode@plt-0x10>

0000000072005b88 <opnd_get_segment@plt>:
    72005b88:	ff 25 c2 57 21 00    	jmpq   *0x2157c2(%rip)        # 7221b350 <_GLOBAL_OFFSET_TABLE_+0xd0>
    72005b8e:	68 17 00 00 00       	pushq  $0x17
    72005b93:	e9 70 fe ff ff       	jmpq   72005a08 <decode@plt-0x10>

0000000072005b98 <dr_register_thread_init_event@plt>:
    72005b98:	ff 25 ba 57 21 00    	jmpq   *0x2157ba(%rip)        # 7221b358 <_GLOBAL_OFFSET_TABLE_+0xd8>
    72005b9e:	68 18 00 00 00       	pushq  $0x18
    72005ba3:	e9 60 fe ff ff       	jmpq   72005a08 <decode@plt-0x10>

0000000072005ba8 <munmap@plt>:
    72005ba8:	ff 25 b2 57 21 00    	jmpq   *0x2157b2(%rip)        # 7221b360 <_GLOBAL_OFFSET_TABLE_+0xe0>
    72005bae:	68 19 00 00 00       	pushq  $0x19
    72005bb3:	e9 50 fe ff ff       	jmpq   72005a08 <decode@plt-0x10>

0000000072005bb8 <dr_get_process_id@plt>:
    72005bb8:	ff 25 aa 57 21 00    	jmpq   *0x2157aa(%rip)        # 7221b368 <_GLOBAL_OFFSET_TABLE_+0xe8>
    72005bbe:	68 1a 00 00 00       	pushq  $0x1a
    72005bc3:	e9 40 fe ff ff       	jmpq   72005a08 <decode@plt-0x10>

0000000072005bc8 <cfg_thread_init@plt>:
    72005bc8:	ff 25 a2 57 21 00    	jmpq   *0x2157a2(%rip)        # 7221b370 <_GLOBAL_OFFSET_TABLE_+0xf0>
    72005bce:	68 1b 00 00 00       	pushq  $0x1b
    72005bd3:	e9 30 fe ff ff       	jmpq   72005a08 <decode@plt-0x10>

0000000072005bd8 <umbra_basic_block@plt>:
    72005bd8:	ff 25 9a 57 21 00    	jmpq   *0x21579a(%rip)        # 7221b378 <_GLOBAL_OFFSET_TABLE_+0xf8>
    72005bde:	68 1c 00 00 00       	pushq  $0x1c
    72005be3:	e9 20 fe ff ff       	jmpq   72005a08 <decode@plt-0x10>

0000000072005be8 <umbra_get_arg@plt>:
    72005be8:	ff 25 92 57 21 00    	jmpq   *0x215792(%rip)        # 7221b380 <_GLOBAL_OFFSET_TABLE_+0x100>
    72005bee:	68 1d 00 00 00       	pushq  $0x1d
    72005bf3:	e9 10 fe ff ff       	jmpq   72005a08 <decode@plt-0x10>

0000000072005bf8 <opnd_get_index@plt>:
    72005bf8:	ff 25 8a 57 21 00    	jmpq   *0x21578a(%rip)        # 7221b388 <_GLOBAL_OFFSET_TABLE_+0x108>
    72005bfe:	68 1e 00 00 00       	pushq  $0x1e
    72005c03:	e9 00 fe ff ff       	jmpq   72005a08 <decode@plt-0x10>

0000000072005c08 <umbra_thread_exit@plt>:
    72005c08:	ff 25 82 57 21 00    	jmpq   *0x215782(%rip)        # 7221b390 <_GLOBAL_OFFSET_TABLE_+0x110>
    72005c0e:	68 1f 00 00 00       	pushq  $0x1f
    72005c13:	e9 f0 fd ff ff       	jmpq   72005a08 <decode@plt-0x10>

0000000072005c18 <instr_create_2dst_2src@plt>:
    72005c18:	ff 25 7a 57 21 00    	jmpq   *0x21577a(%rip)        # 7221b398 <_GLOBAL_OFFSET_TABLE_+0x118>
    72005c1e:	68 20 00 00 00       	pushq  $0x20
    72005c23:	e9 e0 fd ff ff       	jmpq   72005a08 <decode@plt-0x10>

0000000072005c28 <instr_get_dst@plt>:
    72005c28:	ff 25 72 57 21 00    	jmpq   *0x215772(%rip)        # 7221b3a0 <_GLOBAL_OFFSET_TABLE_+0x120>
    72005c2e:	68 21 00 00 00       	pushq  $0x21
    72005c33:	e9 d0 fd ff ff       	jmpq   72005a08 <decode@plt-0x10>

0000000072005c38 <instr_get_opcode@plt>:
    72005c38:	ff 25 6a 57 21 00    	jmpq   *0x21576a(%rip)        # 7221b3a8 <_GLOBAL_OFFSET_TABLE_+0x128>
    72005c3e:	68 22 00 00 00       	pushq  $0x22
    72005c43:	e9 c0 fd ff ff       	jmpq   72005a08 <decode@plt-0x10>

0000000072005c48 <cfg_thread_exit@plt>:
    72005c48:	ff 25 62 57 21 00    	jmpq   *0x215762(%rip)        # 7221b3b0 <_GLOBAL_OFFSET_TABLE_+0x130>
    72005c4e:	68 23 00 00 00       	pushq  $0x23
    72005c53:	e9 b0 fd ff ff       	jmpq   72005a08 <decode@plt-0x10>

0000000072005c58 <shadow_module_unload@plt>:
    72005c58:	ff 25 5a 57 21 00    	jmpq   *0x21575a(%rip)        # 7221b3b8 <_GLOBAL_OFFSET_TABLE_+0x138>
    72005c5e:	68 24 00 00 00       	pushq  $0x24
    72005c63:	e9 a0 fd ff ff       	jmpq   72005a08 <decode@plt-0x10>

0000000072005c68 <instr_uses_aflags@plt>:
    72005c68:	ff 25 52 57 21 00    	jmpq   *0x215752(%rip)        # 7221b3c0 <_GLOBAL_OFFSET_TABLE_+0x140>
    72005c6e:	68 25 00 00 00       	pushq  $0x25
    72005c73:	e9 90 fd ff ff       	jmpq   72005a08 <decode@plt-0x10>

0000000072005c78 <table_alloc_ref@plt>:
    72005c78:	ff 25 4a 57 21 00    	jmpq   *0x21574a(%rip)        # 7221b3c8 <_GLOBAL_OFFSET_TABLE_+0x148>
    72005c7e:	68 26 00 00 00       	pushq  $0x26
    72005c83:	e9 80 fd ff ff       	jmpq   72005a08 <decode@plt-0x10>

0000000072005c88 <umbra_wrap_func@plt>:
    72005c88:	ff 25 42 57 21 00    	jmpq   *0x215742(%rip)        # 7221b3d0 <_GLOBAL_OFFSET_TABLE_+0x150>
    72005c8e:	68 27 00 00 00       	pushq  $0x27
    72005c93:	e9 70 fd ff ff       	jmpq   72005a08 <decode@plt-0x10>

0000000072005c98 <opnd_same@plt>:
    72005c98:	ff 25 3a 57 21 00    	jmpq   *0x21573a(%rip)        # 7221b3d8 <_GLOBAL_OFFSET_TABLE_+0x158>
    72005c9e:	68 28 00 00 00       	pushq  $0x28
    72005ca3:	e9 60 fd ff ff       	jmpq   72005a08 <decode@plt-0x10>

0000000072005ca8 <memcpy@plt>:
    72005ca8:	ff 25 32 57 21 00    	jmpq   *0x215732(%rip)        # 7221b3e0 <_GLOBAL_OFFSET_TABLE_+0x160>
    72005cae:	68 29 00 00 00       	pushq  $0x29
    72005cb3:	e9 50 fd ff ff       	jmpq   72005a08 <decode@plt-0x10>

0000000072005cb8 <dr_save_arith_flags@plt>:
    72005cb8:	ff 25 2a 57 21 00    	jmpq   *0x21572a(%rip)        # 7221b3e8 <_GLOBAL_OFFSET_TABLE_+0x168>
    72005cbe:	68 2a 00 00 00       	pushq  $0x2a
    72005cc3:	e9 40 fd ff ff       	jmpq   72005a08 <decode@plt-0x10>

0000000072005cc8 <dr_nonheap_alloc@plt>:
    72005cc8:	ff 25 22 57 21 00    	jmpq   *0x215722(%rip)        # 7221b3f0 <_GLOBAL_OFFSET_TABLE_+0x170>
    72005cce:	68 2b 00 00 00       	pushq  $0x2b
    72005cd3:	e9 30 fd ff ff       	jmpq   72005a08 <decode@plt-0x10>

0000000072005cd8 <optimize_trace@plt>:
    72005cd8:	ff 25 1a 57 21 00    	jmpq   *0x21571a(%rip)        # 7221b3f8 <_GLOBAL_OFFSET_TABLE_+0x178>
    72005cde:	68 2c 00 00 00       	pushq  $0x2c
    72005ce3:	e9 20 fd ff ff       	jmpq   72005a08 <decode@plt-0x10>

0000000072005ce8 <puts@plt>:
    72005ce8:	ff 25 12 57 21 00    	jmpq   *0x215712(%rip)        # 7221b400 <_GLOBAL_OFFSET_TABLE_+0x180>
    72005cee:	68 2d 00 00 00       	pushq  $0x2d
    72005cf3:	e9 10 fd ff ff       	jmpq   72005a08 <decode@plt-0x10>

0000000072005cf8 <table_alloc_edge@plt>:
    72005cf8:	ff 25 0a 57 21 00    	jmpq   *0x21570a(%rip)        # 7221b408 <_GLOBAL_OFFSET_TABLE_+0x188>
    72005cfe:	68 2e 00 00 00       	pushq  $0x2e
    72005d03:	e9 00 fd ff ff       	jmpq   72005a08 <decode@plt-0x10>

0000000072005d08 <umbra_align_cache_line@plt>:
    72005d08:	ff 25 02 57 21 00    	jmpq   *0x215702(%rip)        # 7221b410 <_GLOBAL_OFFSET_TABLE_+0x190>
    72005d0e:	68 2f 00 00 00       	pushq  $0x2f
    72005d13:	e9 f0 fc ff ff       	jmpq   72005a08 <decode@plt-0x10>

0000000072005d18 <dr_register_restore_state_event@plt>:
    72005d18:	ff 25 fa 56 21 00    	jmpq   *0x2156fa(%rip)        # 7221b418 <_GLOBAL_OFFSET_TABLE_+0x198>
    72005d1e:	68 30 00 00 00       	pushq  $0x30
    72005d23:	e9 e0 fc ff ff       	jmpq   72005a08 <decode@plt-0x10>

0000000072005d28 <malloc@plt>:
    72005d28:	ff 25 f2 56 21 00    	jmpq   *0x2156f2(%rip)        # 7221b420 <_GLOBAL_OFFSET_TABLE_+0x1a0>
    72005d2e:	68 31 00 00 00       	pushq  $0x31
    72005d33:	e9 d0 fc ff ff       	jmpq   72005a08 <decode@plt-0x10>

0000000072005d38 <sleep@plt>:
    72005d38:	ff 25 ea 56 21 00    	jmpq   *0x2156ea(%rip)        # 7221b428 <_GLOBAL_OFFSET_TABLE_+0x1a8>
    72005d3e:	68 32 00 00 00       	pushq  $0x32
    72005d43:	e9 c0 fc ff ff       	jmpq   72005a08 <decode@plt-0x10>

0000000072005d48 <instr_set_src@plt>:
    72005d48:	ff 25 e2 56 21 00    	jmpq   *0x2156e2(%rip)        # 7221b430 <_GLOBAL_OFFSET_TABLE_+0x1b0>
    72005d4e:	68 33 00 00 00       	pushq  $0x33
    72005d53:	e9 b0 fc ff ff       	jmpq   72005a08 <decode@plt-0x10>

0000000072005d58 <instr_is_interrupt@plt>:
    72005d58:	ff 25 da 56 21 00    	jmpq   *0x2156da(%rip)        # 7221b438 <_GLOBAL_OFFSET_TABLE_+0x1b8>
    72005d5e:	68 34 00 00 00       	pushq  $0x34
    72005d63:	e9 a0 fc ff ff       	jmpq   72005a08 <decode@plt-0x10>

0000000072005d68 <instr_destroy@plt>:
    72005d68:	ff 25 d2 56 21 00    	jmpq   *0x2156d2(%rip)        # 7221b440 <_GLOBAL_OFFSET_TABLE_+0x1c0>
    72005d6e:	68 35 00 00 00       	pushq  $0x35
    72005d73:	e9 90 fc ff ff       	jmpq   72005a08 <decode@plt-0x10>

0000000072005d78 <dr_register_signal_event@plt>:
    72005d78:	ff 25 ca 56 21 00    	jmpq   *0x2156ca(%rip)        # 7221b448 <_GLOBAL_OFFSET_TABLE_+0x1c8>
    72005d7e:	68 36 00 00 00       	pushq  $0x36
    72005d83:	e9 80 fc ff ff       	jmpq   72005a08 <decode@plt-0x10>

0000000072005d88 <instrlist_clear_and_destroy@plt>:
    72005d88:	ff 25 c2 56 21 00    	jmpq   *0x2156c2(%rip)        # 7221b450 <_GLOBAL_OFFSET_TABLE_+0x1d0>
    72005d8e:	68 37 00 00 00       	pushq  $0x37
    72005d93:	e9 70 fc ff ff       	jmpq   72005a08 <decode@plt-0x10>

0000000072005d98 <reg_64_to_32@plt>:
    72005d98:	ff 25 ba 56 21 00    	jmpq   *0x2156ba(%rip)        # 7221b458 <_GLOBAL_OFFSET_TABLE_+0x1d8>
    72005d9e:	68 38 00 00 00       	pushq  $0x38
    72005da3:	e9 60 fc ff ff       	jmpq   72005a08 <decode@plt-0x10>

0000000072005da8 <dr_printf@plt>:
    72005da8:	ff 25 b2 56 21 00    	jmpq   *0x2156b2(%rip)        # 7221b460 <_GLOBAL_OFFSET_TABLE_+0x1e0>
    72005dae:	68 39 00 00 00       	pushq  $0x39
    72005db3:	e9 50 fc ff ff       	jmpq   72005a08 <decode@plt-0x10>

0000000072005db8 <instrument_thread_init@plt>:
    72005db8:	ff 25 aa 56 21 00    	jmpq   *0x2156aa(%rip)        # 7221b468 <_GLOBAL_OFFSET_TABLE_+0x1e8>
    72005dbe:	68 3a 00 00 00       	pushq  $0x3a
    72005dc3:	e9 40 fc ff ff       	jmpq   72005a08 <decode@plt-0x10>

0000000072005dc8 <opnd_create_immed_int@plt>:
    72005dc8:	ff 25 a2 56 21 00    	jmpq   *0x2156a2(%rip)        # 7221b470 <_GLOBAL_OFFSET_TABLE_+0x1f0>
    72005dce:	68 3b 00 00 00       	pushq  $0x3b
    72005dd3:	e9 30 fc ff ff       	jmpq   72005a08 <decode@plt-0x10>

0000000072005dd8 <umbra_pre_syscall@plt>:
    72005dd8:	ff 25 9a 56 21 00    	jmpq   *0x21569a(%rip)        # 7221b478 <_GLOBAL_OFFSET_TABLE_+0x1f8>
    72005dde:	68 3c 00 00 00       	pushq  $0x3c
    72005de3:	e9 20 fc ff ff       	jmpq   72005a08 <decode@plt-0x10>

0000000072005de8 <umbra_init@plt>:
    72005de8:	ff 25 92 56 21 00    	jmpq   *0x215692(%rip)        # 7221b480 <_GLOBAL_OFFSET_TABLE_+0x200>
    72005dee:	68 3d 00 00 00       	pushq  $0x3d
    72005df3:	e9 10 fc ff ff       	jmpq   72005a08 <decode@plt-0x10>

0000000072005df8 <hashtable_count@plt>:
    72005df8:	ff 25 8a 56 21 00    	jmpq   *0x21568a(%rip)        # 7221b488 <_GLOBAL_OFFSET_TABLE_+0x208>
    72005dfe:	68 3e 00 00 00       	pushq  $0x3e
    72005e03:	e9 00 fc ff ff       	jmpq   72005a08 <decode@plt-0x10>

0000000072005e08 <instrlist_first@plt>:
    72005e08:	ff 25 82 56 21 00    	jmpq   *0x215682(%rip)        # 7221b490 <_GLOBAL_OFFSET_TABLE_+0x210>
    72005e0e:	68 3f 00 00 00       	pushq  $0x3f
    72005e13:	e9 f0 fb ff ff       	jmpq   72005a08 <decode@plt-0x10>

0000000072005e18 <cfg_basic_block@plt>:
    72005e18:	ff 25 7a 56 21 00    	jmpq   *0x21567a(%rip)        # 7221b498 <_GLOBAL_OFFSET_TABLE_+0x218>
    72005e1e:	68 40 00 00 00       	pushq  $0x40
    72005e23:	e9 e0 fb ff ff       	jmpq   72005a08 <decode@plt-0x10>

0000000072005e28 <instr_get_arith_flags@plt>:
    72005e28:	ff 25 72 56 21 00    	jmpq   *0x215672(%rip)        # 7221b4a0 <_GLOBAL_OFFSET_TABLE_+0x220>
    72005e2e:	68 41 00 00 00       	pushq  $0x41
    72005e33:	e9 d0 fb ff ff       	jmpq   72005a08 <decode@plt-0x10>

0000000072005e38 <dr_mutex_destroy@plt>:
    72005e38:	ff 25 6a 56 21 00    	jmpq   *0x21566a(%rip)        # 7221b4a8 <_GLOBAL_OFFSET_TABLE_+0x228>
    72005e3e:	68 42 00 00 00       	pushq  $0x42
    72005e43:	e9 c0 fb ff ff       	jmpq   72005a08 <decode@plt-0x10>

0000000072005e48 <opnd_create_rel_addr@plt>:
    72005e48:	ff 25 62 56 21 00    	jmpq   *0x215662(%rip)        # 7221b4b0 <_GLOBAL_OFFSET_TABLE_+0x230>
    72005e4e:	68 43 00 00 00       	pushq  $0x43
    72005e53:	e9 b0 fb ff ff       	jmpq   72005a08 <decode@plt-0x10>

0000000072005e58 <hash@plt>:
    72005e58:	ff 25 5a 56 21 00    	jmpq   *0x21565a(%rip)        # 7221b4b8 <_GLOBAL_OFFSET_TABLE_+0x238>
    72005e5e:	68 44 00 00 00       	pushq  $0x44
    72005e63:	e9 a0 fb ff ff       	jmpq   72005a08 <decode@plt-0x10>

0000000072005e68 <instr_length@plt>:
    72005e68:	ff 25 52 56 21 00    	jmpq   *0x215652(%rip)        # 7221b4c0 <_GLOBAL_OFFSET_TABLE_+0x240>
    72005e6e:	68 45 00 00 00       	pushq  $0x45
    72005e73:	e9 90 fb ff ff       	jmpq   72005a08 <decode@plt-0x10>

0000000072005e78 <dr_global_alloc@plt>:
    72005e78:	ff 25 4a 56 21 00    	jmpq   *0x21564a(%rip)        # 7221b4c8 <_GLOBAL_OFFSET_TABLE_+0x248>
    72005e7e:	68 46 00 00 00       	pushq  $0x46
    72005e83:	e9 80 fb ff ff       	jmpq   72005a08 <decode@plt-0x10>

0000000072005e88 <instr_writes_memory@plt>:
    72005e88:	ff 25 42 56 21 00    	jmpq   *0x215642(%rip)        # 7221b4d0 <_GLOBAL_OFFSET_TABLE_+0x250>
    72005e8e:	68 47 00 00 00       	pushq  $0x47
    72005e93:	e9 70 fb ff ff       	jmpq   72005a08 <decode@plt-0x10>

0000000072005e98 <dr_module_iterator_next@plt>:
    72005e98:	ff 25 3a 56 21 00    	jmpq   *0x21563a(%rip)        # 7221b4d8 <_GLOBAL_OFFSET_TABLE_+0x258>
    72005e9e:	68 48 00 00 00       	pushq  $0x48
    72005ea3:	e9 60 fb ff ff       	jmpq   72005a08 <decode@plt-0x10>

0000000072005ea8 <mmap@plt>:
    72005ea8:	ff 25 32 56 21 00    	jmpq   *0x215632(%rip)        # 7221b4e0 <_GLOBAL_OFFSET_TABLE_+0x260>
    72005eae:	68 49 00 00 00       	pushq  $0x49
    72005eb3:	e9 50 fb ff ff       	jmpq   72005a08 <decode@plt-0x10>

0000000072005eb8 <instr_create_0dst_2src@plt>:
    72005eb8:	ff 25 2a 56 21 00    	jmpq   *0x21562a(%rip)        # 7221b4e8 <_GLOBAL_OFFSET_TABLE_+0x268>
    72005ebe:	68 4a 00 00 00       	pushq  $0x4a
    72005ec3:	e9 40 fb ff ff       	jmpq   72005a08 <decode@plt-0x10>

0000000072005ec8 <shadow_signal@plt>:
    72005ec8:	ff 25 22 56 21 00    	jmpq   *0x215622(%rip)        # 7221b4f0 <_GLOBAL_OFFSET_TABLE_+0x270>
    72005ece:	68 4b 00 00 00       	pushq  $0x4b
    72005ed3:	e9 30 fb ff ff       	jmpq   72005a08 <decode@plt-0x10>

0000000072005ed8 <instr_create@plt>:
    72005ed8:	ff 25 1a 56 21 00    	jmpq   *0x21561a(%rip)        # 7221b4f8 <_GLOBAL_OFFSET_TABLE_+0x278>
    72005ede:	68 4c 00 00 00       	pushq  $0x4c
    72005ee3:	e9 20 fb ff ff       	jmpq   72005a08 <decode@plt-0x10>

0000000072005ee8 <dr_delete_fragment@plt>:
    72005ee8:	ff 25 12 56 21 00    	jmpq   *0x215612(%rip)        # 7221b500 <_GLOBAL_OFFSET_TABLE_+0x280>
    72005eee:	68 4d 00 00 00       	pushq  $0x4d
    72005ef3:	e9 10 fb ff ff       	jmpq   72005a08 <decode@plt-0x10>

0000000072005ef8 <table_get_edge@plt>:
    72005ef8:	ff 25 0a 56 21 00    	jmpq   *0x21560a(%rip)        # 7221b508 <_GLOBAL_OFFSET_TABLE_+0x288>
    72005efe:	68 4e 00 00 00       	pushq  $0x4e
    72005f03:	e9 00 fb ff ff       	jmpq   72005a08 <decode@plt-0x10>

0000000072005f08 <dr_module_iterator_stop@plt>:
    72005f08:	ff 25 02 56 21 00    	jmpq   *0x215602(%rip)        # 7221b510 <_GLOBAL_OFFSET_TABLE_+0x290>
    72005f0e:	68 4f 00 00 00       	pushq  $0x4f
    72005f13:	e9 f0 fa ff ff       	jmpq   72005a08 <decode@plt-0x10>

0000000072005f18 <table_thread_exit@plt>:
    72005f18:	ff 25 fa 55 21 00    	jmpq   *0x2155fa(%rip)        # 7221b518 <_GLOBAL_OFFSET_TABLE_+0x298>
    72005f1e:	68 50 00 00 00       	pushq  $0x50
    72005f23:	e9 e0 fa ff ff       	jmpq   72005a08 <decode@plt-0x10>

0000000072005f28 <cfg_edge_get_next_outgoing_edge@plt>:
    72005f28:	ff 25 f2 55 21 00    	jmpq   *0x2155f2(%rip)        # 7221b520 <_GLOBAL_OFFSET_TABLE_+0x2a0>
    72005f2e:	68 51 00 00 00       	pushq  $0x51
    72005f33:	e9 d0 fa ff ff       	jmpq   72005a08 <decode@plt-0x10>

0000000072005f38 <table_alloc_func@plt>:
    72005f38:	ff 25 ea 55 21 00    	jmpq   *0x2155ea(%rip)        # 7221b528 <_GLOBAL_OFFSET_TABLE_+0x2a8>
    72005f3e:	68 52 00 00 00       	pushq  $0x52
    72005f43:	e9 c0 fa ff ff       	jmpq   72005a08 <decode@plt-0x10>

0000000072005f48 <opnd_get_base@plt>:
    72005f48:	ff 25 e2 55 21 00    	jmpq   *0x2155e2(%rip)        # 7221b530 <_GLOBAL_OFFSET_TABLE_+0x2b0>
    72005f4e:	68 53 00 00 00       	pushq  $0x53
    72005f53:	e9 b0 fa ff ff       	jmpq   72005a08 <decode@plt-0x10>

0000000072005f58 <dr_mutex_lock@plt>:
    72005f58:	ff 25 da 55 21 00    	jmpq   *0x2155da(%rip)        # 7221b538 <_GLOBAL_OFFSET_TABLE_+0x2b8>
    72005f5e:	68 54 00 00 00       	pushq  $0x54
    72005f63:	e9 a0 fa ff ff       	jmpq   72005a08 <decode@plt-0x10>

0000000072005f68 <umbra_save_reg@plt>:
    72005f68:	ff 25 d2 55 21 00    	jmpq   *0x2155d2(%rip)        # 7221b540 <_GLOBAL_OFFSET_TABLE_+0x2c0>
    72005f6e:	68 55 00 00 00       	pushq  $0x55
    72005f73:	e9 90 fa ff ff       	jmpq   72005a08 <decode@plt-0x10>

0000000072005f78 <dr_lookup_module@plt>:
    72005f78:	ff 25 ca 55 21 00    	jmpq   *0x2155ca(%rip)        # 7221b548 <_GLOBAL_OFFSET_TABLE_+0x2c8>
    72005f7e:	68 56 00 00 00       	pushq  $0x56
    72005f83:	e9 80 fa ff ff       	jmpq   72005a08 <decode@plt-0x10>

0000000072005f88 <dr_nonheap_free@plt>:
    72005f88:	ff 25 c2 55 21 00    	jmpq   *0x2155c2(%rip)        # 7221b550 <_GLOBAL_OFFSET_TABLE_+0x2d0>
    72005f8e:	68 57 00 00 00       	pushq  $0x57
    72005f93:	e9 70 fa ff ff       	jmpq   72005a08 <decode@plt-0x10>

0000000072005f98 <dr_restore_arith_flags@plt>:
    72005f98:	ff 25 ba 55 21 00    	jmpq   *0x2155ba(%rip)        # 7221b558 <_GLOBAL_OFFSET_TABLE_+0x2d8>
    72005f9e:	68 58 00 00 00       	pushq  $0x58
    72005fa3:	e9 60 fa ff ff       	jmpq   72005a08 <decode@plt-0x10>

0000000072005fa8 <opnd_get_addr@plt>:
    72005fa8:	ff 25 b2 55 21 00    	jmpq   *0x2155b2(%rip)        # 7221b560 <_GLOBAL_OFFSET_TABLE_+0x2e0>
    72005fae:	68 59 00 00 00       	pushq  $0x59
    72005fb3:	e9 50 fa ff ff       	jmpq   72005a08 <decode@plt-0x10>

0000000072005fb8 <dr_get_thread_id@plt>:
    72005fb8:	ff 25 aa 55 21 00    	jmpq   *0x2155aa(%rip)        # 7221b568 <_GLOBAL_OFFSET_TABLE_+0x2e8>
    72005fbe:	68 5a 00 00 00       	pushq  $0x5a
    72005fc3:	e9 40 fa ff ff       	jmpq   72005a08 <decode@plt-0x10>

0000000072005fc8 <umbra_restore_reg@plt>:
    72005fc8:	ff 25 a2 55 21 00    	jmpq   *0x2155a2(%rip)        # 7221b570 <_GLOBAL_OFFSET_TABLE_+0x2f0>
    72005fce:	68 5b 00 00 00       	pushq  $0x5b
    72005fd3:	e9 30 fa ff ff       	jmpq   72005a08 <decode@plt-0x10>

0000000072005fd8 <search_itr_some@plt>:
    72005fd8:	ff 25 9a 55 21 00    	jmpq   *0x21559a(%rip)        # 7221b578 <_GLOBAL_OFFSET_TABLE_+0x2f8>
    72005fde:	68 5c 00 00 00       	pushq  $0x5c
    72005fe3:	e9 20 fa ff ff       	jmpq   72005a08 <decode@plt-0x10>

0000000072005fe8 <instr_is_call@plt>:
    72005fe8:	ff 25 92 55 21 00    	jmpq   *0x215592(%rip)        # 7221b580 <_GLOBAL_OFFSET_TABLE_+0x300>
    72005fee:	68 5d 00 00 00       	pushq  $0x5d
    72005ff3:	e9 10 fa ff ff       	jmpq   72005a08 <decode@plt-0x10>

0000000072005ff8 <remove_some@plt>:
    72005ff8:	ff 25 8a 55 21 00    	jmpq   *0x21558a(%rip)        # 7221b588 <_GLOBAL_OFFSET_TABLE_+0x308>
    72005ffe:	68 5e 00 00 00       	pushq  $0x5e
    72006003:	e9 00 fa ff ff       	jmpq   72005a08 <decode@plt-0x10>

0000000072006008 <opnd_create_base_disp@plt>:
    72006008:	ff 25 82 55 21 00    	jmpq   *0x215582(%rip)        # 7221b590 <_GLOBAL_OFFSET_TABLE_+0x310>
    7200600e:	68 5f 00 00 00       	pushq  $0x5f
    72006013:	e9 f0 f9 ff ff       	jmpq   72005a08 <decode@plt-0x10>

0000000072006018 <instr_get_prev@plt>:
    72006018:	ff 25 7a 55 21 00    	jmpq   *0x21557a(%rip)        # 7221b598 <_GLOBAL_OFFSET_TABLE_+0x318>
    7200601e:	68 60 00 00 00       	pushq  $0x60
    72006023:	e9 e0 f9 ff ff       	jmpq   72005a08 <decode@plt-0x10>

0000000072006028 <instr_is_cbr@plt>:
    72006028:	ff 25 72 55 21 00    	jmpq   *0x215572(%rip)        # 7221b5a0 <_GLOBAL_OFFSET_TABLE_+0x320>
    7200602e:	68 61 00 00 00       	pushq  $0x61
    72006033:	e9 d0 f9 ff ff       	jmpq   72005a08 <decode@plt-0x10>

0000000072006038 <detected_race@plt>:
    72006038:	ff 25 6a 55 21 00    	jmpq   *0x21556a(%rip)        # 7221b5a8 <_GLOBAL_OFFSET_TABLE_+0x328>
    7200603e:	68 62 00 00 00       	pushq  $0x62
    72006043:	e9 c0 f9 ff ff       	jmpq   72005a08 <decode@plt-0x10>

0000000072006048 <dr_insert_clean_call@plt>:
    72006048:	ff 25 62 55 21 00    	jmpq   *0x215562(%rip)        # 7221b5b0 <_GLOBAL_OFFSET_TABLE_+0x330>
    7200604e:	68 63 00 00 00       	pushq  $0x63
    72006053:	e9 b0 f9 ff ff       	jmpq   72005a08 <decode@plt-0x10>

0000000072006058 <opnd_get_pc@plt>:
    72006058:	ff 25 5a 55 21 00    	jmpq   *0x21555a(%rip)        # 7221b5b8 <_GLOBAL_OFFSET_TABLE_+0x338>
    7200605e:	68 64 00 00 00       	pushq  $0x64
    72006063:	e9 a0 f9 ff ff       	jmpq   72005a08 <decode@plt-0x10>

0000000072006068 <register_is_used@plt>:
    72006068:	ff 25 52 55 21 00    	jmpq   *0x215552(%rip)        # 7221b5c0 <_GLOBAL_OFFSET_TABLE_+0x340>
    7200606e:	68 65 00 00 00       	pushq  $0x65
    72006073:	e9 90 f9 ff ff       	jmpq   72005a08 <decode@plt-0x10>

0000000072006078 <instr_is_mbr@plt>:
    72006078:	ff 25 4a 55 21 00    	jmpq   *0x21554a(%rip)        # 7221b5c8 <_GLOBAL_OFFSET_TABLE_+0x348>
    7200607e:	68 66 00 00 00       	pushq  $0x66
    72006083:	e9 80 f9 ff ff       	jmpq   72005a08 <decode@plt-0x10>

0000000072006088 <umbra_filter_syscall@plt>:
    72006088:	ff 25 42 55 21 00    	jmpq   *0x215542(%rip)        # 7221b5d0 <_GLOBAL_OFFSET_TABLE_+0x350>
    7200608e:	68 67 00 00 00       	pushq  $0x67
    72006093:	e9 70 f9 ff ff       	jmpq   72005a08 <decode@plt-0x10>

0000000072006098 <shadow_thread_init@plt>:
    72006098:	ff 25 3a 55 21 00    	jmpq   *0x21553a(%rip)        # 7221b5d8 <_GLOBAL_OFFSET_TABLE_+0x358>
    7200609e:	68 68 00 00 00       	pushq  $0x68
    720060a3:	e9 60 f9 ff ff       	jmpq   72005a08 <decode@plt-0x10>

00000000720060a8 <hashtable_search@plt>:
    720060a8:	ff 25 32 55 21 00    	jmpq   *0x215532(%rip)        # 7221b5e0 <_GLOBAL_OFFSET_TABLE_+0x360>
    720060ae:	68 69 00 00 00       	pushq  $0x69
    720060b3:	e9 50 f9 ff ff       	jmpq   72005a08 <decode@plt-0x10>

00000000720060b8 <shadow_init@plt>:
    720060b8:	ff 25 2a 55 21 00    	jmpq   *0x21552a(%rip)        # 7221b5e8 <_GLOBAL_OFFSET_TABLE_+0x368>
    720060be:	68 6a 00 00 00       	pushq  $0x6a
    720060c3:	e9 40 f9 ff ff       	jmpq   72005a08 <decode@plt-0x10>

00000000720060c8 <create_hashtable@plt>:
    720060c8:	ff 25 22 55 21 00    	jmpq   *0x215522(%rip)        # 7221b5f0 <_GLOBAL_OFFSET_TABLE_+0x370>
    720060ce:	68 6b 00 00 00       	pushq  $0x6b
    720060d3:	e9 30 f9 ff ff       	jmpq   72005a08 <decode@plt-0x10>

00000000720060d8 <instr_create_0dst_0src@plt>:
    720060d8:	ff 25 1a 55 21 00    	jmpq   *0x21551a(%rip)        # 7221b5f8 <_GLOBAL_OFFSET_TABLE_+0x378>
    720060de:	68 6c 00 00 00       	pushq  $0x6c
    720060e3:	e9 20 f9 ff ff       	jmpq   72005a08 <decode@plt-0x10>

00000000720060e8 <hashtable_destroy@plt>:
    720060e8:	ff 25 12 55 21 00    	jmpq   *0x215512(%rip)        # 7221b600 <_GLOBAL_OFFSET_TABLE_+0x380>
    720060ee:	68 6d 00 00 00       	pushq  $0x6d
    720060f3:	e9 10 f9 ff ff       	jmpq   72005a08 <decode@plt-0x10>

00000000720060f8 <instr_writes_to_reg@plt>:
    720060f8:	ff 25 0a 55 21 00    	jmpq   *0x21550a(%rip)        # 7221b608 <_GLOBAL_OFFSET_TABLE_+0x388>
    720060fe:	68 6e 00 00 00       	pushq  $0x6e
    72006103:	e9 00 f9 ff ff       	jmpq   72005a08 <decode@plt-0x10>

0000000072006108 <instrlist_create@plt>:
    72006108:	ff 25 02 55 21 00    	jmpq   *0x215502(%rip)        # 7221b610 <_GLOBAL_OFFSET_TABLE_+0x390>
    7200610e:	68 6f 00 00 00       	pushq  $0x6f
    72006113:	e9 f0 f8 ff ff       	jmpq   72005a08 <decode@plt-0x10>

0000000072006118 <umbra_delete@plt>:
    72006118:	ff 25 fa 54 21 00    	jmpq   *0x2154fa(%rip)        # 7221b618 <_GLOBAL_OFFSET_TABLE_+0x398>
    7200611e:	68 70 00 00 00       	pushq  $0x70
    72006123:	e9 e0 f8 ff ff       	jmpq   72005a08 <decode@plt-0x10>

0000000072006128 <dr_register_thread_exit_event@plt>:
    72006128:	ff 25 f2 54 21 00    	jmpq   *0x2154f2(%rip)        # 7221b620 <_GLOBAL_OFFSET_TABLE_+0x3a0>
    7200612e:	68 71 00 00 00       	pushq  $0x71
    72006133:	e9 d0 f8 ff ff       	jmpq   72005a08 <decode@plt-0x10>

0000000072006138 <dr_query_memory@plt>:
    72006138:	ff 25 ea 54 21 00    	jmpq   *0x2154ea(%rip)        # 7221b628 <_GLOBAL_OFFSET_TABLE_+0x3a8>
    7200613e:	68 72 00 00 00       	pushq  $0x72
    72006143:	e9 c0 f8 ff ff       	jmpq   72005a08 <decode@plt-0x10>

0000000072006148 <register_is_updated@plt>:
    72006148:	ff 25 e2 54 21 00    	jmpq   *0x2154e2(%rip)        # 7221b630 <_GLOBAL_OFFSET_TABLE_+0x3b0>
    7200614e:	68 73 00 00 00       	pushq  $0x73
    72006153:	e9 b0 f8 ff ff       	jmpq   72005a08 <decode@plt-0x10>

0000000072006158 <opnd_is_base_disp@plt>:
    72006158:	ff 25 da 54 21 00    	jmpq   *0x2154da(%rip)        # 7221b638 <_GLOBAL_OFFSET_TABLE_+0x3b8>
    7200615e:	68 74 00 00 00       	pushq  $0x74
    72006163:	e9 a0 f8 ff ff       	jmpq   72005a08 <decode@plt-0x10>

0000000072006168 <instrlist_truncate@plt>:
    72006168:	ff 25 d2 54 21 00    	jmpq   *0x2154d2(%rip)        # 7221b640 <_GLOBAL_OFFSET_TABLE_+0x3c0>
    7200616e:	68 75 00 00 00       	pushq  $0x75
    72006173:	e9 90 f8 ff ff       	jmpq   72005a08 <decode@plt-0x10>

0000000072006178 <dr_register_end_trace_event@plt>:
    72006178:	ff 25 ca 54 21 00    	jmpq   *0x2154ca(%rip)        # 7221b648 <_GLOBAL_OFFSET_TABLE_+0x3c8>
    7200617e:	68 76 00 00 00       	pushq  $0x76
    72006183:	e9 80 f8 ff ff       	jmpq   72005a08 <decode@plt-0x10>

0000000072006188 <dr_query_memory_ex@plt>:
    72006188:	ff 25 c2 54 21 00    	jmpq   *0x2154c2(%rip)        # 7221b650 <_GLOBAL_OFFSET_TABLE_+0x3d0>
    7200618e:	68 77 00 00 00       	pushq  $0x77
    72006193:	e9 70 f8 ff ff       	jmpq   72005a08 <decode@plt-0x10>

0000000072006198 <opnd_is_immed@plt>:
    72006198:	ff 25 ba 54 21 00    	jmpq   *0x2154ba(%rip)        # 7221b658 <_GLOBAL_OFFSET_TABLE_+0x3d8>
    7200619e:	68 78 00 00 00       	pushq  $0x78
    720061a3:	e9 60 f8 ff ff       	jmpq   72005a08 <decode@plt-0x10>

00000000720061a8 <instr_get_src@plt>:
    720061a8:	ff 25 b2 54 21 00    	jmpq   *0x2154b2(%rip)        # 7221b660 <_GLOBAL_OFFSET_TABLE_+0x3e0>
    720061ae:	68 79 00 00 00       	pushq  $0x79
    720061b3:	e9 50 f8 ff ff       	jmpq   72005a08 <decode@plt-0x10>

00000000720061b8 <dr_fprintf@plt>:
    720061b8:	ff 25 aa 54 21 00    	jmpq   *0x2154aa(%rip)        # 7221b668 <_GLOBAL_OFFSET_TABLE_+0x3e8>
    720061be:	68 7a 00 00 00       	pushq  $0x7a
    720061c3:	e9 40 f8 ff ff       	jmpq   72005a08 <decode@plt-0x10>

00000000720061c8 <dr_set_tls_field@plt>:
    720061c8:	ff 25 a2 54 21 00    	jmpq   *0x2154a2(%rip)        # 7221b670 <_GLOBAL_OFFSET_TABLE_+0x3f0>
    720061ce:	68 7b 00 00 00       	pushq  $0x7b
    720061d3:	e9 30 f8 ff ff       	jmpq   72005a08 <decode@plt-0x10>

00000000720061d8 <instr_is_meta_may_fault@plt>:
    720061d8:	ff 25 9a 54 21 00    	jmpq   *0x21549a(%rip)        # 7221b678 <_GLOBAL_OFFSET_TABLE_+0x3f8>
    720061de:	68 7c 00 00 00       	pushq  $0x7c
    720061e3:	e9 20 f8 ff ff       	jmpq   72005a08 <decode@plt-0x10>

00000000720061e8 <dr_using_all_private_caches@plt>:
    720061e8:	ff 25 92 54 21 00    	jmpq   *0x215492(%rip)        # 7221b680 <_GLOBAL_OFFSET_TABLE_+0x400>
    720061ee:	68 7d 00 00 00       	pushq  $0x7d
    720061f3:	e9 10 f8 ff ff       	jmpq   72005a08 <decode@plt-0x10>

00000000720061f8 <strncmp@plt>:
    720061f8:	ff 25 8a 54 21 00    	jmpq   *0x21548a(%rip)        # 7221b688 <_GLOBAL_OFFSET_TABLE_+0x408>
    720061fe:	68 7e 00 00 00       	pushq  $0x7e
    72006203:	e9 00 f8 ff ff       	jmpq   72005a08 <decode@plt-0x10>

0000000072006208 <analyzer_update_bb@plt>:
    72006208:	ff 25 82 54 21 00    	jmpq   *0x215482(%rip)        # 7221b690 <_GLOBAL_OFFSET_TABLE_+0x410>
    7200620e:	68 7f 00 00 00       	pushq  $0x7f
    72006213:	e9 f0 f7 ff ff       	jmpq   72005a08 <decode@plt-0x10>

0000000072006218 <hashtable_iterator_search@plt>:
    72006218:	ff 25 7a 54 21 00    	jmpq   *0x21547a(%rip)        # 7221b698 <_GLOBAL_OFFSET_TABLE_+0x418>
    7200621e:	68 80 00 00 00       	pushq  $0x80
    72006223:	e9 e0 f7 ff ff       	jmpq   72005a08 <decode@plt-0x10>

0000000072006228 <instr_is_exit_cti@plt>:
    72006228:	ff 25 72 54 21 00    	jmpq   *0x215472(%rip)        # 7221b6a0 <_GLOBAL_OFFSET_TABLE_+0x420>
    7200622e:	68 81 00 00 00       	pushq  $0x81
    72006233:	e9 d0 f7 ff ff       	jmpq   72005a08 <decode@plt-0x10>

0000000072006238 <dr_free_module_data@plt>:
    72006238:	ff 25 6a 54 21 00    	jmpq   *0x21546a(%rip)        # 7221b6a8 <_GLOBAL_OFFSET_TABLE_+0x428>
    7200623e:	68 82 00 00 00       	pushq  $0x82
    72006243:	e9 c0 f7 ff ff       	jmpq   72005a08 <decode@plt-0x10>

0000000072006248 <hashtable_iterator_remove@plt>:
    72006248:	ff 25 62 54 21 00    	jmpq   *0x215462(%rip)        # 7221b6b0 <_GLOBAL_OFFSET_TABLE_+0x430>
    7200624e:	68 83 00 00 00       	pushq  $0x83
    72006253:	e9 b0 f7 ff ff       	jmpq   72005a08 <decode@plt-0x10>

0000000072006258 <proc_get_cache_line_size@plt>:
    72006258:	ff 25 5a 54 21 00    	jmpq   *0x21545a(%rip)        # 7221b6b8 <_GLOBAL_OFFSET_TABLE_+0x438>
    7200625e:	68 84 00 00 00       	pushq  $0x84
    72006263:	e9 a0 f7 ff ff       	jmpq   72005a08 <decode@plt-0x10>

0000000072006268 <register_is_used_for_mem@plt>:
    72006268:	ff 25 52 54 21 00    	jmpq   *0x215452(%rip)        # 7221b6c0 <_GLOBAL_OFFSET_TABLE_+0x440>
    7200626e:	68 85 00 00 00       	pushq  $0x85
    72006273:	e9 90 f7 ff ff       	jmpq   72005a08 <decode@plt-0x10>

0000000072006278 <dr_thread_alloc@plt>:
    72006278:	ff 25 4a 54 21 00    	jmpq   *0x21544a(%rip)        # 7221b6c8 <_GLOBAL_OFFSET_TABLE_+0x448>
    7200627e:	68 86 00 00 00       	pushq  $0x86
    72006283:	e9 80 f7 ff ff       	jmpq   72005a08 <decode@plt-0x10>

0000000072006288 <instr_writes_to_exact_reg@plt>:
    72006288:	ff 25 42 54 21 00    	jmpq   *0x215442(%rip)        # 7221b6d0 <_GLOBAL_OFFSET_TABLE_+0x450>
    7200628e:	68 87 00 00 00       	pushq  $0x87
    72006293:	e9 70 f7 ff ff       	jmpq   72005a08 <decode@plt-0x10>

0000000072006298 <instr_is_syscall@plt>:
    72006298:	ff 25 3a 54 21 00    	jmpq   *0x21543a(%rip)        # 7221b6d8 <_GLOBAL_OFFSET_TABLE_+0x458>
    7200629e:	68 88 00 00 00       	pushq  $0x88
    720062a3:	e9 60 f7 ff ff       	jmpq   72005a08 <decode@plt-0x10>

00000000720062a8 <instr_init@plt>:
    720062a8:	ff 25 32 54 21 00    	jmpq   *0x215432(%rip)        # 7221b6e0 <_GLOBAL_OFFSET_TABLE_+0x460>
    720062ae:	68 89 00 00 00       	pushq  $0x89
    720062b3:	e9 50 f7 ff ff       	jmpq   72005a08 <decode@plt-0x10>

00000000720062b8 <search_some@plt>:
    720062b8:	ff 25 2a 54 21 00    	jmpq   *0x21542a(%rip)        # 7221b6e8 <_GLOBAL_OFFSET_TABLE_+0x468>
    720062be:	68 8a 00 00 00       	pushq  $0x8a
    720062c3:	e9 40 f7 ff ff       	jmpq   72005a08 <decode@plt-0x10>

00000000720062c8 <instrlist_meta_preinsert@plt>:
    720062c8:	ff 25 22 54 21 00    	jmpq   *0x215422(%rip)        # 7221b6f0 <_GLOBAL_OFFSET_TABLE_+0x470>
    720062ce:	68 8b 00 00 00       	pushq  $0x8b
    720062d3:	e9 30 f7 ff ff       	jmpq   72005a08 <decode@plt-0x10>

00000000720062d8 <instrlist_last@plt>:
    720062d8:	ff 25 1a 54 21 00    	jmpq   *0x21541a(%rip)        # 7221b6f8 <_GLOBAL_OFFSET_TABLE_+0x478>
    720062de:	68 8c 00 00 00       	pushq  $0x8c
    720062e3:	e9 20 f7 ff ff       	jmpq   72005a08 <decode@plt-0x10>

00000000720062e8 <analyzer_thread_exit@plt>:
    720062e8:	ff 25 12 54 21 00    	jmpq   *0x215412(%rip)        # 7221b700 <_GLOBAL_OFFSET_TABLE_+0x480>
    720062ee:	68 8d 00 00 00       	pushq  $0x8d
    720062f3:	e9 10 f7 ff ff       	jmpq   72005a08 <decode@plt-0x10>

00000000720062f8 <umbra_thread_init@plt>:
    720062f8:	ff 25 0a 54 21 00    	jmpq   *0x21540a(%rip)        # 7221b708 <_GLOBAL_OFFSET_TABLE_+0x488>
    720062fe:	68 8e 00 00 00       	pushq  $0x8e
    72006303:	e9 00 f7 ff ff       	jmpq   72005a08 <decode@plt-0x10>

0000000072006308 <analyzer_thread_init@plt>:
    72006308:	ff 25 02 54 21 00    	jmpq   *0x215402(%rip)        # 7221b710 <_GLOBAL_OFFSET_TABLE_+0x490>
    7200630e:	68 8f 00 00 00       	pushq  $0x8f
    72006313:	e9 f0 f6 ff ff       	jmpq   72005a08 <decode@plt-0x10>

0000000072006318 <opnd_get_disp@plt>:
    72006318:	ff 25 fa 53 21 00    	jmpq   *0x2153fa(%rip)        # 7221b718 <_GLOBAL_OFFSET_TABLE_+0x498>
    7200631e:	68 90 00 00 00       	pushq  $0x90
    72006323:	e9 e0 f6 ff ff       	jmpq   72005a08 <decode@plt-0x10>

0000000072006328 <sbrk@plt>:
    72006328:	ff 25 f2 53 21 00    	jmpq   *0x2153f2(%rip)        # 7221b720 <_GLOBAL_OFFSET_TABLE_+0x4a0>
    7200632e:	68 91 00 00 00       	pushq  $0x91
    72006333:	e9 d0 f6 ff ff       	jmpq   72005a08 <decode@plt-0x10>

0000000072006338 <dr_register_bb_event@plt>:
    72006338:	ff 25 ea 53 21 00    	jmpq   *0x2153ea(%rip)        # 7221b728 <_GLOBAL_OFFSET_TABLE_+0x4a8>
    7200633e:	68 92 00 00 00       	pushq  $0x92
    72006343:	e9 c0 f6 ff ff       	jmpq   72005a08 <decode@plt-0x10>

0000000072006348 <umbra_open_proc_log@plt>:
    72006348:	ff 25 e2 53 21 00    	jmpq   *0x2153e2(%rip)        # 7221b730 <_GLOBAL_OFFSET_TABLE_+0x4b0>
    7200634e:	68 93 00 00 00       	pushq  $0x93
    72006353:	e9 b0 f6 ff ff       	jmpq   72005a08 <decode@plt-0x10>

0000000072006358 <cfg_get_bb@plt>:
    72006358:	ff 25 da 53 21 00    	jmpq   *0x2153da(%rip)        # 7221b738 <_GLOBAL_OFFSET_TABLE_+0x4b8>
    7200635e:	68 94 00 00 00       	pushq  $0x94
    72006363:	e9 a0 f6 ff ff       	jmpq   72005a08 <decode@plt-0x10>

0000000072006368 <instr_uses_reg@plt>:
    72006368:	ff 25 d2 53 21 00    	jmpq   *0x2153d2(%rip)        # 7221b740 <_GLOBAL_OFFSET_TABLE_+0x4c0>
    7200636e:	68 95 00 00 00       	pushq  $0x95
    72006373:	e9 90 f6 ff ff       	jmpq   72005a08 <decode@plt-0x10>

0000000072006378 <dr_register_post_syscall_event@plt>:
    72006378:	ff 25 ca 53 21 00    	jmpq   *0x2153ca(%rip)        # 7221b748 <_GLOBAL_OFFSET_TABLE_+0x4c8>
    7200637e:	68 96 00 00 00       	pushq  $0x96
    72006383:	e9 80 f6 ff ff       	jmpq   72005a08 <decode@plt-0x10>

0000000072006388 <umbra_restore_eax_aflags@plt>:
    72006388:	ff 25 c2 53 21 00    	jmpq   *0x2153c2(%rip)        # 7221b750 <_GLOBAL_OFFSET_TABLE_+0x4d0>
    7200638e:	68 97 00 00 00       	pushq  $0x97
    72006393:	e9 70 f6 ff ff       	jmpq   72005a08 <decode@plt-0x10>

0000000072006398 <umbra_fork_init@plt>:
    72006398:	ff 25 ba 53 21 00    	jmpq   *0x2153ba(%rip)        # 7221b758 <_GLOBAL_OFFSET_TABLE_+0x4d8>
    7200639e:	68 98 00 00 00       	pushq  $0x98
    720063a3:	e9 60 f6 ff ff       	jmpq   72005a08 <decode@plt-0x10>

00000000720063a8 <memset@plt>:
    720063a8:	ff 25 b2 53 21 00    	jmpq   *0x2153b2(%rip)        # 7221b760 <_GLOBAL_OFFSET_TABLE_+0x4e0>
    720063ae:	68 99 00 00 00       	pushq  $0x99
    720063b3:	e9 50 f6 ff ff       	jmpq   72005a08 <decode@plt-0x10>

00000000720063b8 <dr_set_mcontext@plt>:
    720063b8:	ff 25 aa 53 21 00    	jmpq   *0x2153aa(%rip)        # 7221b768 <_GLOBAL_OFFSET_TABLE_+0x4e8>
    720063be:	68 9a 00 00 00       	pushq  $0x9a
    720063c3:	e9 40 f6 ff ff       	jmpq   72005a08 <decode@plt-0x10>

00000000720063c8 <shadow_exit@plt>:
    720063c8:	ff 25 a2 53 21 00    	jmpq   *0x2153a2(%rip)        # 7221b770 <_GLOBAL_OFFSET_TABLE_+0x4f0>
    720063ce:	68 9b 00 00 00       	pushq  $0x9b
    720063d3:	e9 30 f6 ff ff       	jmpq   72005a08 <decode@plt-0x10>

00000000720063d8 <umbra_end_trace@plt>:
    720063d8:	ff 25 9a 53 21 00    	jmpq   *0x21539a(%rip)        # 7221b778 <_GLOBAL_OFFSET_TABLE_+0x4f8>
    720063de:	68 9c 00 00 00       	pushq  $0x9c
    720063e3:	e9 20 f6 ff ff       	jmpq   72005a08 <decode@plt-0x10>

00000000720063e8 <instr_create_1dst_2src@plt>:
    720063e8:	ff 25 92 53 21 00    	jmpq   *0x215392(%rip)        # 7221b780 <_GLOBAL_OFFSET_TABLE_+0x500>
    720063ee:	68 9d 00 00 00       	pushq  $0x9d
    720063f3:	e9 10 f6 ff ff       	jmpq   72005a08 <decode@plt-0x10>

00000000720063f8 <instr_is_cti_short@plt>:
    720063f8:	ff 25 8a 53 21 00    	jmpq   *0x21538a(%rip)        # 7221b788 <_GLOBAL_OFFSET_TABLE_+0x508>
    720063fe:	68 9e 00 00 00       	pushq  $0x9e
    72006403:	e9 00 f6 ff ff       	jmpq   72005a08 <decode@plt-0x10>

0000000072006408 <shadow_post_syscall@plt>:
    72006408:	ff 25 82 53 21 00    	jmpq   *0x215382(%rip)        # 7221b790 <_GLOBAL_OFFSET_TABLE_+0x510>
    7200640e:	68 9f 00 00 00       	pushq  $0x9f
    72006413:	e9 f0 f5 ff ff       	jmpq   72005a08 <decode@plt-0x10>

0000000072006418 <dr_register_module_unload_event@plt>:
    72006418:	ff 25 7a 53 21 00    	jmpq   *0x21537a(%rip)        # 7221b798 <_GLOBAL_OFFSET_TABLE_+0x518>
    7200641e:	68 a0 00 00 00       	pushq  $0xa0
    72006423:	e9 e0 f5 ff ff       	jmpq   72005a08 <decode@plt-0x10>

0000000072006428 <opnd_is_abs_addr@plt>:
    72006428:	ff 25 72 53 21 00    	jmpq   *0x215372(%rip)        # 7221b7a0 <_GLOBAL_OFFSET_TABLE_+0x520>
    7200642e:	68 a1 00 00 00       	pushq  $0xa1
    72006433:	e9 d0 f5 ff ff       	jmpq   72005a08 <decode@plt-0x10>

0000000072006438 <dr_mutex_unlock@plt>:
    72006438:	ff 25 6a 53 21 00    	jmpq   *0x21536a(%rip)        # 7221b7a8 <_GLOBAL_OFFSET_TABLE_+0x528>
    7200643e:	68 a2 00 00 00       	pushq  $0xa2
    72006443:	e9 c0 f5 ff ff       	jmpq   72005a08 <decode@plt-0x10>

0000000072006448 <instrlist_init@plt>:
    72006448:	ff 25 62 53 21 00    	jmpq   *0x215362(%rip)        # 7221b7b0 <_GLOBAL_OFFSET_TABLE_+0x530>
    7200644e:	68 a3 00 00 00       	pushq  $0xa3
    72006453:	e9 b0 f5 ff ff       	jmpq   72005a08 <decode@plt-0x10>

0000000072006458 <instr_reg_in_src@plt>:
    72006458:	ff 25 5a 53 21 00    	jmpq   *0x21535a(%rip)        # 7221b7b8 <_GLOBAL_OFFSET_TABLE_+0x538>
    7200645e:	68 a4 00 00 00       	pushq  $0xa4
    72006463:	e9 a0 f5 ff ff       	jmpq   72005a08 <decode@plt-0x10>

0000000072006468 <instr_get_next@plt>:
    72006468:	ff 25 52 53 21 00    	jmpq   *0x215352(%rip)        # 7221b7c0 <_GLOBAL_OFFSET_TABLE_+0x540>
    7200646e:	68 a5 00 00 00       	pushq  $0xa5
    72006473:	e9 90 f5 ff ff       	jmpq   72005a08 <decode@plt-0x10>

0000000072006478 <opnd_is_far_base_disp@plt>:
    72006478:	ff 25 4a 53 21 00    	jmpq   *0x21534a(%rip)        # 7221b7c8 <_GLOBAL_OFFSET_TABLE_+0x548>
    7200647e:	68 a6 00 00 00       	pushq  $0xa6
    72006483:	e9 80 f5 ff ff       	jmpq   72005a08 <decode@plt-0x10>

0000000072006488 <opnd_compute_address@plt>:
    72006488:	ff 25 42 53 21 00    	jmpq   *0x215342(%rip)        # 7221b7d0 <_GLOBAL_OFFSET_TABLE_+0x550>
    7200648e:	68 a7 00 00 00       	pushq  $0xa7
    72006493:	e9 70 f5 ff ff       	jmpq   72005a08 <decode@plt-0x10>

0000000072006498 <table_alloc_ref_cache@plt>:
    72006498:	ff 25 3a 53 21 00    	jmpq   *0x21533a(%rip)        # 7221b7d8 <_GLOBAL_OFFSET_TABLE_+0x558>
    7200649e:	68 a8 00 00 00       	pushq  $0xa8
    720064a3:	e9 60 f5 ff ff       	jmpq   72005a08 <decode@plt-0x10>

00000000720064a8 <instrlist_encode@plt>:
    720064a8:	ff 25 32 53 21 00    	jmpq   *0x215332(%rip)        # 7221b7e0 <_GLOBAL_OFFSET_TABLE_+0x560>
    720064ae:	68 a9 00 00 00       	pushq  $0xa9
    720064b3:	e9 50 f5 ff ff       	jmpq   72005a08 <decode@plt-0x10>

00000000720064b8 <umbra_post_syscall@plt>:
    720064b8:	ff 25 2a 53 21 00    	jmpq   *0x21532a(%rip)        # 7221b7e8 <_GLOBAL_OFFSET_TABLE_+0x568>
    720064be:	68 aa 00 00 00       	pushq  $0xaa
    720064c3:	e9 40 f5 ff ff       	jmpq   72005a08 <decode@plt-0x10>

00000000720064c8 <reg_is_32bit@plt>:
    720064c8:	ff 25 22 53 21 00    	jmpq   *0x215322(%rip)        # 7221b7f0 <_GLOBAL_OFFSET_TABLE_+0x570>
    720064ce:	68 ab 00 00 00       	pushq  $0xab
    720064d3:	e9 30 f5 ff ff       	jmpq   72005a08 <decode@plt-0x10>

00000000720064d8 <table_bb_add_to_hashtable@plt>:
    720064d8:	ff 25 1a 53 21 00    	jmpq   *0x21531a(%rip)        # 7221b7f8 <_GLOBAL_OFFSET_TABLE_+0x578>
    720064de:	68 ac 00 00 00       	pushq  $0xac
    720064e3:	e9 20 f5 ff ff       	jmpq   72005a08 <decode@plt-0x10>

00000000720064e8 <dr_syscall_get_param@plt>:
    720064e8:	ff 25 12 53 21 00    	jmpq   *0x215312(%rip)        # 7221b800 <_GLOBAL_OFFSET_TABLE_+0x580>
    720064ee:	68 ad 00 00 00       	pushq  $0xad
    720064f3:	e9 10 f5 ff ff       	jmpq   72005a08 <decode@plt-0x10>

00000000720064f8 <instr_create_1dst_0src@plt>:
    720064f8:	ff 25 0a 53 21 00    	jmpq   *0x21530a(%rip)        # 7221b808 <_GLOBAL_OFFSET_TABLE_+0x588>
    720064fe:	68 ae 00 00 00       	pushq  $0xae
    72006503:	e9 00 f5 ff ff       	jmpq   72005a08 <decode@plt-0x10>

0000000072006508 <dr_get_current_drcontext@plt>:
    72006508:	ff 25 02 53 21 00    	jmpq   *0x215302(%rip)        # 7221b810 <_GLOBAL_OFFSET_TABLE_+0x590>
    7200650e:	68 af 00 00 00       	pushq  $0xaf
    72006513:	e9 f0 f4 ff ff       	jmpq   72005a08 <decode@plt-0x10>

0000000072006518 <opnd_is_immed_int@plt>:
    72006518:	ff 25 fa 52 21 00    	jmpq   *0x2152fa(%rip)        # 7221b818 <_GLOBAL_OFFSET_TABLE_+0x598>
    7200651e:	68 b0 00 00 00       	pushq  $0xb0
    72006523:	e9 e0 f4 ff ff       	jmpq   72005a08 <decode@plt-0x10>

0000000072006528 <table_alloc_bb@plt>:
    72006528:	ff 25 f2 52 21 00    	jmpq   *0x2152f2(%rip)        # 7221b820 <_GLOBAL_OFFSET_TABLE_+0x5a0>
    7200652e:	68 b1 00 00 00       	pushq  $0xb1
    72006533:	e9 d0 f4 ff ff       	jmpq   72005a08 <decode@plt-0x10>

0000000072006538 <dr_register_exit_event@plt>:
    72006538:	ff 25 ea 52 21 00    	jmpq   *0x2152ea(%rip)        # 7221b828 <_GLOBAL_OFFSET_TABLE_+0x5a8>
    7200653e:	68 b2 00 00 00       	pushq  $0xb2
    72006543:	e9 c0 f4 ff ff       	jmpq   72005a08 <decode@plt-0x10>

0000000072006548 <register_is_dead@plt>:
    72006548:	ff 25 e2 52 21 00    	jmpq   *0x2152e2(%rip)        # 7221b830 <_GLOBAL_OFFSET_TABLE_+0x5b0>
    7200654e:	68 b3 00 00 00       	pushq  $0xb3
    72006553:	e9 b0 f4 ff ff       	jmpq   72005a08 <decode@plt-0x10>

0000000072006558 <dr_snprintf@plt>:
    72006558:	ff 25 da 52 21 00    	jmpq   *0x2152da(%rip)        # 7221b838 <_GLOBAL_OFFSET_TABLE_+0x5b8>
    7200655e:	68 b4 00 00 00       	pushq  $0xb4
    72006563:	e9 a0 f4 ff ff       	jmpq   72005a08 <decode@plt-0x10>

0000000072006568 <instr_create_0dst_1src@plt>:
    72006568:	ff 25 d2 52 21 00    	jmpq   *0x2152d2(%rip)        # 7221b840 <_GLOBAL_OFFSET_TABLE_+0x5c0>
    7200656e:	68 b5 00 00 00       	pushq  $0xb5
    72006573:	e9 90 f4 ff ff       	jmpq   72005a08 <decode@plt-0x10>

0000000072006578 <instr_is_rep_ins@plt>:
    72006578:	ff 25 ca 52 21 00    	jmpq   *0x2152ca(%rip)        # 7221b848 <_GLOBAL_OFFSET_TABLE_+0x5c8>
    7200657e:	68 b6 00 00 00       	pushq  $0xb6
    72006583:	e9 80 f4 ff ff       	jmpq   72005a08 <decode@plt-0x10>

0000000072006588 <memory_mod_app_add@plt>:
    72006588:	ff 25 c2 52 21 00    	jmpq   *0x2152c2(%rip)        # 7221b850 <_GLOBAL_OFFSET_TABLE_+0x5d0>
    7200658e:	68 b7 00 00 00       	pushq  $0xb7
    72006593:	e9 70 f4 ff ff       	jmpq   72005a08 <decode@plt-0x10>

0000000072006598 <instrlist_remove@plt>:
    72006598:	ff 25 ba 52 21 00    	jmpq   *0x2152ba(%rip)        # 7221b858 <_GLOBAL_OFFSET_TABLE_+0x5d8>
    7200659e:	68 b8 00 00 00       	pushq  $0xb8
    720065a3:	e9 60 f4 ff ff       	jmpq   72005a08 <decode@plt-0x10>

00000000720065a8 <opnd_is_rel_addr@plt>:
    720065a8:	ff 25 b2 52 21 00    	jmpq   *0x2152b2(%rip)        # 7221b860 <_GLOBAL_OFFSET_TABLE_+0x5e0>
    720065ae:	68 b9 00 00 00       	pushq  $0xb9
    720065b3:	e9 50 f4 ff ff       	jmpq   72005a08 <decode@plt-0x10>

00000000720065b8 <umbra_save_eax_aflags@plt>:
    720065b8:	ff 25 aa 52 21 00    	jmpq   *0x2152aa(%rip)        # 7221b868 <_GLOBAL_OFFSET_TABLE_+0x5e8>
    720065be:	68 ba 00 00 00       	pushq  $0xba
    720065c3:	e9 40 f4 ff ff       	jmpq   72005a08 <decode@plt-0x10>

00000000720065c8 <dr_register_filter_syscall_event@plt>:
    720065c8:	ff 25 a2 52 21 00    	jmpq   *0x2152a2(%rip)        # 7221b870 <_GLOBAL_OFFSET_TABLE_+0x5f0>
    720065ce:	68 bb 00 00 00       	pushq  $0xbb
    720065d3:	e9 30 f4 ff ff       	jmpq   72005a08 <decode@plt-0x10>

00000000720065d8 <hashtable_insert@plt>:
    720065d8:	ff 25 9a 52 21 00    	jmpq   *0x21529a(%rip)        # 7221b878 <_GLOBAL_OFFSET_TABLE_+0x5f8>
    720065de:	68 bc 00 00 00       	pushq  $0xbc
    720065e3:	e9 20 f4 ff ff       	jmpq   72005a08 <decode@plt-0x10>

00000000720065e8 <opnd_create_instr@plt>:
    720065e8:	ff 25 92 52 21 00    	jmpq   *0x215292(%rip)        # 7221b880 <_GLOBAL_OFFSET_TABLE_+0x600>
    720065ee:	68 bd 00 00 00       	pushq  $0xbd
    720065f3:	e9 10 f4 ff ff       	jmpq   72005a08 <decode@plt-0x10>

00000000720065f8 <instrument_basic_block@plt>:
    720065f8:	ff 25 8a 52 21 00    	jmpq   *0x21528a(%rip)        # 7221b888 <_GLOBAL_OFFSET_TABLE_+0x608>
    720065fe:	68 be 00 00 00       	pushq  $0xbe
    72006603:	e9 00 f4 ff ff       	jmpq   72005a08 <decode@plt-0x10>

0000000072006608 <hashtable_iterator@plt>:
    72006608:	ff 25 82 52 21 00    	jmpq   *0x215282(%rip)        # 7221b890 <_GLOBAL_OFFSET_TABLE_+0x610>
    7200660e:	68 bf 00 00 00       	pushq  $0xbf
    72006613:	e9 f0 f3 ff ff       	jmpq   72005a08 <decode@plt-0x10>

0000000072006618 <decode_fault_code_fragment@plt>:
    72006618:	ff 25 7a 52 21 00    	jmpq   *0x21527a(%rip)        # 7221b898 <_GLOBAL_OFFSET_TABLE_+0x618>
    7200661e:	68 c0 00 00 00       	pushq  $0xc0
    72006623:	e9 e0 f3 ff ff       	jmpq   72005a08 <decode@plt-0x10>

0000000072006628 <opnd_create_reg@plt>:
    72006628:	ff 25 72 52 21 00    	jmpq   *0x215272(%rip)        # 7221b8a0 <_GLOBAL_OFFSET_TABLE_+0x620>
    7200662e:	68 c1 00 00 00       	pushq  $0xc1
    72006633:	e9 d0 f3 ff ff       	jmpq   72005a08 <decode@plt-0x10>

0000000072006638 <dr_log@plt>:
    72006638:	ff 25 6a 52 21 00    	jmpq   *0x21526a(%rip)        # 7221b8a8 <_GLOBAL_OFFSET_TABLE_+0x628>
    7200663e:	68 c2 00 00 00       	pushq  $0xc2
    72006643:	e9 c0 f3 ff ff       	jmpq   72005a08 <decode@plt-0x10>

0000000072006648 <ceilf@plt>:
    72006648:	ff 25 62 52 21 00    	jmpq   *0x215262(%rip)        # 7221b8b0 <_GLOBAL_OFFSET_TABLE_+0x630>
    7200664e:	68 c3 00 00 00       	pushq  $0xc3
    72006653:	e9 b0 f3 ff ff       	jmpq   72005a08 <decode@plt-0x10>

0000000072006658 <umbra_restore_state@plt>:
    72006658:	ff 25 5a 52 21 00    	jmpq   *0x21525a(%rip)        # 7221b8b8 <_GLOBAL_OFFSET_TABLE_+0x638>
    7200665e:	68 c4 00 00 00       	pushq  $0xc4
    72006663:	e9 a0 f3 ff ff       	jmpq   72005a08 <decode@plt-0x10>

0000000072006668 <instrument_thread_exit@plt>:
    72006668:	ff 25 52 52 21 00    	jmpq   *0x215252(%rip)        # 7221b8c0 <_GLOBAL_OFFSET_TABLE_+0x640>
    7200666e:	68 c5 00 00 00       	pushq  $0xc5
    72006673:	e9 90 f3 ff ff       	jmpq   72005a08 <decode@plt-0x10>

0000000072006678 <dr_module_iterator_start@plt>:
    72006678:	ff 25 4a 52 21 00    	jmpq   *0x21524a(%rip)        # 7221b8c8 <_GLOBAL_OFFSET_TABLE_+0x648>
    7200667e:	68 c6 00 00 00       	pushq  $0xc6
    72006683:	e9 80 f3 ff ff       	jmpq   72005a08 <decode@plt-0x10>

0000000072006688 <dr_register_trace_event@plt>:
    72006688:	ff 25 42 52 21 00    	jmpq   *0x215242(%rip)        # 7221b8d0 <_GLOBAL_OFFSET_TABLE_+0x650>
    7200668e:	68 c7 00 00 00       	pushq  $0xc7
    72006693:	e9 70 f3 ff ff       	jmpq   72005a08 <decode@plt-0x10>

0000000072006698 <instr_num_dsts@plt>:
    72006698:	ff 25 3a 52 21 00    	jmpq   *0x21523a(%rip)        # 7221b8d8 <_GLOBAL_OFFSET_TABLE_+0x658>
    7200669e:	68 c8 00 00 00       	pushq  $0xc8
    720066a3:	e9 60 f3 ff ff       	jmpq   72005a08 <decode@plt-0x10>

00000000720066a8 <dr_abort@plt>:
    720066a8:	ff 25 32 52 21 00    	jmpq   *0x215232(%rip)        # 7221b8e0 <_GLOBAL_OFFSET_TABLE_+0x660>
    720066ae:	68 c9 00 00 00       	pushq  $0xc9
    720066b3:	e9 50 f3 ff ff       	jmpq   72005a08 <decode@plt-0x10>

00000000720066b8 <table_thread_init@plt>:
    720066b8:	ff 25 2a 52 21 00    	jmpq   *0x21522a(%rip)        # 7221b8e8 <_GLOBAL_OFFSET_TABLE_+0x668>
    720066be:	68 ca 00 00 00       	pushq  $0xca
    720066c3:	e9 40 f3 ff ff       	jmpq   72005a08 <decode@plt-0x10>

00000000720066c8 <dr_register_pre_syscall_event@plt>:
    720066c8:	ff 25 22 52 21 00    	jmpq   *0x215222(%rip)        # 7221b8f0 <_GLOBAL_OFFSET_TABLE_+0x670>
    720066ce:	68 cb 00 00 00       	pushq  $0xcb
    720066d3:	e9 30 f3 ff ff       	jmpq   72005a08 <decode@plt-0x10>

00000000720066d8 <umbra_signal@plt>:
    720066d8:	ff 25 1a 52 21 00    	jmpq   *0x21521a(%rip)        # 7221b8f8 <_GLOBAL_OFFSET_TABLE_+0x678>
    720066de:	68 cc 00 00 00       	pushq  $0xcc
    720066e3:	e9 20 f3 ff ff       	jmpq   72005a08 <decode@plt-0x10>

00000000720066e8 <opcode_is_rep_ins@plt>:
    720066e8:	ff 25 12 52 21 00    	jmpq   *0x215212(%rip)        # 7221b900 <_GLOBAL_OFFSET_TABLE_+0x680>
    720066ee:	68 cd 00 00 00       	pushq  $0xcd
    720066f3:	e9 10 f3 ff ff       	jmpq   72005a08 <decode@plt-0x10>

00000000720066f8 <optimize_cfg_aflags@plt>:
    720066f8:	ff 25 0a 52 21 00    	jmpq   *0x21520a(%rip)        # 7221b908 <_GLOBAL_OFFSET_TABLE_+0x688>
    720066fe:	68 ce 00 00 00       	pushq  $0xce
    72006703:	e9 00 f3 ff ff       	jmpq   72005a08 <decode@plt-0x10>

0000000072006708 <dr_module_iterator_hasnext@plt>:
    72006708:	ff 25 02 52 21 00    	jmpq   *0x215202(%rip)        # 7221b910 <_GLOBAL_OFFSET_TABLE_+0x690>
    7200670e:	68 cf 00 00 00       	pushq  $0xcf
    72006713:	e9 f0 f2 ff ff       	jmpq   72005a08 <decode@plt-0x10>

0000000072006718 <debug_detected_race@plt>:
    72006718:	ff 25 fa 51 21 00    	jmpq   *0x2151fa(%rip)        # 7221b918 <_GLOBAL_OFFSET_TABLE_+0x698>
    7200671e:	68 d0 00 00 00       	pushq  $0xd0
    72006723:	e9 e0 f2 ff ff       	jmpq   72005a08 <decode@plt-0x10>

0000000072006728 <insert_some@plt>:
    72006728:	ff 25 f2 51 21 00    	jmpq   *0x2151f2(%rip)        # 7221b920 <_GLOBAL_OFFSET_TABLE_+0x6a0>
    7200672e:	68 d1 00 00 00       	pushq  $0xd1
    72006733:	e9 d0 f2 ff ff       	jmpq   72005a08 <decode@plt-0x10>

0000000072006738 <opnd_get_reg@plt>:
    72006738:	ff 25 ea 51 21 00    	jmpq   *0x2151ea(%rip)        # 7221b928 <_GLOBAL_OFFSET_TABLE_+0x6a8>
    7200673e:	68 d2 00 00 00       	pushq  $0xd2
    72006743:	e9 c0 f2 ff ff       	jmpq   72005a08 <decode@plt-0x10>

0000000072006748 <instr_num_srcs@plt>:
    72006748:	ff 25 e2 51 21 00    	jmpq   *0x2151e2(%rip)        # 7221b930 <_GLOBAL_OFFSET_TABLE_+0x6b0>
    7200674e:	68 d3 00 00 00       	pushq  $0xd3
    72006753:	e9 b0 f2 ff ff       	jmpq   72005a08 <decode@plt-0x10>

0000000072006758 <exit@plt>:
    72006758:	ff 25 da 51 21 00    	jmpq   *0x2151da(%rip)        # 7221b938 <_GLOBAL_OFFSET_TABLE_+0x6b8>
    7200675e:	68 d4 00 00 00       	pushq  $0xd4
    72006763:	e9 a0 f2 ff ff       	jmpq   72005a08 <decode@plt-0x10>

0000000072006768 <hashtable_remove@plt>:
    72006768:	ff 25 d2 51 21 00    	jmpq   *0x2151d2(%rip)        # 7221b940 <_GLOBAL_OFFSET_TABLE_+0x6c0>
    7200676e:	68 d5 00 00 00       	pushq  $0xd5
    72006773:	e9 90 f2 ff ff       	jmpq   72005a08 <decode@plt-0x10>

0000000072006778 <dr_get_tls_field@plt>:
    72006778:	ff 25 ca 51 21 00    	jmpq   *0x2151ca(%rip)        # 7221b948 <_GLOBAL_OFFSET_TABLE_+0x6c8>
    7200677e:	68 d6 00 00 00       	pushq  $0xd6
    72006783:	e9 80 f2 ff ff       	jmpq   72005a08 <decode@plt-0x10>

0000000072006788 <dr_mutex_create@plt>:
    72006788:	ff 25 c2 51 21 00    	jmpq   *0x2151c2(%rip)        # 7221b950 <_GLOBAL_OFFSET_TABLE_+0x6d0>
    7200678e:	68 d7 00 00 00       	pushq  $0xd7
    72006793:	e9 70 f2 ff ff       	jmpq   72005a08 <decode@plt-0x10>

0000000072006798 <opnd_create_pc@plt>:
    72006798:	ff 25 ba 51 21 00    	jmpq   *0x2151ba(%rip)        # 7221b958 <_GLOBAL_OFFSET_TABLE_+0x6d8>
    7200679e:	68 d8 00 00 00       	pushq  $0xd8
    720067a3:	e9 60 f2 ff ff       	jmpq   72005a08 <decode@plt-0x10>

00000000720067a8 <dr_syscall_get_result@plt>:
    720067a8:	ff 25 b2 51 21 00    	jmpq   *0x2151b2(%rip)        # 7221b960 <_GLOBAL_OFFSET_TABLE_+0x6e0>
    720067ae:	68 d9 00 00 00       	pushq  $0xd9
    720067b3:	e9 50 f2 ff ff       	jmpq   72005a08 <decode@plt-0x10>

00000000720067b8 <opnd_get_immed_int@plt>:
    720067b8:	ff 25 aa 51 21 00    	jmpq   *0x2151aa(%rip)        # 7221b968 <_GLOBAL_OFFSET_TABLE_+0x6e8>
    720067be:	68 da 00 00 00       	pushq  $0xda
    720067c3:	e9 40 f2 ff ff       	jmpq   72005a08 <decode@plt-0x10>

00000000720067c8 <memory_mod_app_lookup@plt>:
    720067c8:	ff 25 a2 51 21 00    	jmpq   *0x2151a2(%rip)        # 7221b970 <_GLOBAL_OFFSET_TABLE_+0x6f0>
    720067ce:	68 db 00 00 00       	pushq  $0xdb
    720067d3:	e9 30 f2 ff ff       	jmpq   72005a08 <decode@plt-0x10>

00000000720067d8 <instrlist_preinsert@plt>:
    720067d8:	ff 25 9a 51 21 00    	jmpq   *0x21519a(%rip)        # 7221b978 <_GLOBAL_OFFSET_TABLE_+0x6f8>
    720067de:	68 dc 00 00 00       	pushq  $0xdc
    720067e3:	e9 20 f2 ff ff       	jmpq   72005a08 <decode@plt-0x10>

00000000720067e8 <dr_get_application_name@plt>:
    720067e8:	ff 25 92 51 21 00    	jmpq   *0x215192(%rip)        # 7221b980 <_GLOBAL_OFFSET_TABLE_+0x700>
    720067ee:	68 dd 00 00 00       	pushq  $0xdd
    720067f3:	e9 10 f2 ff ff       	jmpq   72005a08 <decode@plt-0x10>

00000000720067f8 <instr_writes_to_any_aflags@plt>:
    720067f8:	ff 25 8a 51 21 00    	jmpq   *0x21518a(%rip)        # 7221b988 <_GLOBAL_OFFSET_TABLE_+0x708>
    720067fe:	68 de 00 00 00       	pushq  $0xde
    72006803:	e9 00 f2 ff ff       	jmpq   72005a08 <decode@plt-0x10>

0000000072006808 <umbra_trace@plt>:
    72006808:	ff 25 82 51 21 00    	jmpq   *0x215182(%rip)        # 7221b990 <_GLOBAL_OFFSET_TABLE_+0x710>
    7200680e:	68 df 00 00 00       	pushq  $0xdf
    72006813:	e9 f0 f1 ff ff       	jmpq   72005a08 <decode@plt-0x10>

0000000072006818 <shadow_thread_exit@plt>:
    72006818:	ff 25 7a 51 21 00    	jmpq   *0x21517a(%rip)        # 7221b998 <_GLOBAL_OFFSET_TABLE_+0x718>
    7200681e:	68 e0 00 00 00       	pushq  $0xe0
    72006823:	e9 e0 f1 ff ff       	jmpq   72005a08 <decode@plt-0x10>

0000000072006828 <opnd_is_memory_reference@plt>:
    72006828:	ff 25 72 51 21 00    	jmpq   *0x215172(%rip)        # 7221b9a0 <_GLOBAL_OFFSET_TABLE_+0x720>
    7200682e:	68 e1 00 00 00       	pushq  $0xe1
    72006833:	e9 d0 f1 ff ff       	jmpq   72005a08 <decode@plt-0x10>

0000000072006838 <dr_register_delete_event@plt>:
    72006838:	ff 25 6a 51 21 00    	jmpq   *0x21516a(%rip)        # 7221b9a8 <_GLOBAL_OFFSET_TABLE_+0x728>
    7200683e:	68 e2 00 00 00       	pushq  $0xe2
    72006843:	e9 c0 f1 ff ff       	jmpq   72005a08 <decode@plt-0x10>

0000000072006848 <strlen@plt>:
    72006848:	ff 25 62 51 21 00    	jmpq   *0x215162(%rip)        # 7221b9b0 <_GLOBAL_OFFSET_TABLE_+0x730>
    7200684e:	68 e3 00 00 00       	pushq  $0xe3
    72006853:	e9 b0 f1 ff ff       	jmpq   72005a08 <decode@plt-0x10>

0000000072006858 <table_bb_tag_lookup@plt>:
    72006858:	ff 25 5a 51 21 00    	jmpq   *0x21515a(%rip)        # 7221b9b8 <_GLOBAL_OFFSET_TABLE_+0x738>
    7200685e:	68 e4 00 00 00       	pushq  $0xe4
    72006863:	e9 a0 f1 ff ff       	jmpq   72005a08 <decode@plt-0x10>

0000000072006868 <umbra_module_unload@plt>:
    72006868:	ff 25 52 51 21 00    	jmpq   *0x215152(%rip)        # 7221b9c0 <_GLOBAL_OFFSET_TABLE_+0x740>
    7200686e:	68 e5 00 00 00       	pushq  $0xe5
    72006873:	e9 90 f1 ff ff       	jmpq   72005a08 <decode@plt-0x10>

0000000072006878 <opnd_is_reg@plt>:
    72006878:	ff 25 4a 51 21 00    	jmpq   *0x21514a(%rip)        # 7221b9c8 <_GLOBAL_OFFSET_TABLE_+0x748>
    7200687e:	68 e6 00 00 00       	pushq  $0xe6
    72006883:	e9 80 f1 ff ff       	jmpq   72005a08 <decode@plt-0x10>

0000000072006888 <dr_get_mcontext@plt>:
    72006888:	ff 25 42 51 21 00    	jmpq   *0x215142(%rip)        # 7221b9d0 <_GLOBAL_OFFSET_TABLE_+0x750>
    7200688e:	68 e7 00 00 00       	pushq  $0xe7
    72006893:	e9 70 f1 ff ff       	jmpq   72005a08 <decode@plt-0x10>

0000000072006898 <instr_is_cti@plt>:
    72006898:	ff 25 3a 51 21 00    	jmpq   *0x21513a(%rip)        # 7221b9d8 <_GLOBAL_OFFSET_TABLE_+0x758>
    7200689e:	68 e8 00 00 00       	pushq  $0xe8
    720068a3:	e9 60 f1 ff ff       	jmpq   72005a08 <decode@plt-0x10>

00000000720068a8 <instr_set_translation@plt>:
    720068a8:	ff 25 32 51 21 00    	jmpq   *0x215132(%rip)        # 7221b9e0 <_GLOBAL_OFFSET_TABLE_+0x760>
    720068ae:	68 e9 00 00 00       	pushq  $0xe9
    720068b3:	e9 50 f1 ff ff       	jmpq   72005a08 <decode@plt-0x10>

00000000720068b8 <instr_is_label@plt>:
    720068b8:	ff 25 2a 51 21 00    	jmpq   *0x21512a(%rip)        # 7221b9e8 <_GLOBAL_OFFSET_TABLE_+0x768>
    720068be:	68 ea 00 00 00       	pushq  $0xea
    720068c3:	e9 40 f1 ff ff       	jmpq   72005a08 <decode@plt-0x10>

00000000720068c8 <ref_is_stack_mem@plt>:
    720068c8:	ff 25 22 51 21 00    	jmpq   *0x215122(%rip)        # 7221b9f0 <_GLOBAL_OFFSET_TABLE_+0x770>
    720068ce:	68 eb 00 00 00       	pushq  $0xeb
    720068d3:	e9 30 f1 ff ff       	jmpq   72005a08 <decode@plt-0x10>

00000000720068d8 <dr_register_module_load_event@plt>:
    720068d8:	ff 25 1a 51 21 00    	jmpq   *0x21511a(%rip)        # 7221b9f8 <_GLOBAL_OFFSET_TABLE_+0x778>
    720068de:	68 ec 00 00 00       	pushq  $0xec
    720068e3:	e9 20 f1 ff ff       	jmpq   72005a08 <decode@plt-0x10>

00000000720068e8 <dr_module_preferred_name@plt>:
    720068e8:	ff 25 12 51 21 00    	jmpq   *0x215112(%rip)        # 7221ba00 <_GLOBAL_OFFSET_TABLE_+0x780>
    720068ee:	68 ed 00 00 00       	pushq  $0xed
    720068f3:	e9 10 f1 ff ff       	jmpq   72005a08 <decode@plt-0x10>

00000000720068f8 <dr_open_file@plt>:
    720068f8:	ff 25 0a 51 21 00    	jmpq   *0x21510a(%rip)        # 7221ba08 <_GLOBAL_OFFSET_TABLE_+0x788>
    720068fe:	68 ee 00 00 00       	pushq  $0xee
    72006903:	e9 00 f1 ff ff       	jmpq   72005a08 <decode@plt-0x10>

0000000072006908 <opnd_uses_reg@plt>:
    72006908:	ff 25 02 51 21 00    	jmpq   *0x215102(%rip)        # 7221ba10 <_GLOBAL_OFFSET_TABLE_+0x790>
    7200690e:	68 ef 00 00 00       	pushq  $0xef
    72006913:	e9 f0 f0 ff ff       	jmpq   72005a08 <decode@plt-0x10>

0000000072006918 <compute_shd_memory_addr@plt>:
    72006918:	ff 25 fa 50 21 00    	jmpq   *0x2150fa(%rip)        # 7221ba18 <_GLOBAL_OFFSET_TABLE_+0x798>
    7200691e:	68 f0 00 00 00       	pushq  $0xf0
    72006923:	e9 e0 f0 ff ff       	jmpq   72005a08 <decode@plt-0x10>

0000000072006928 <reg_is_64bit@plt>:
    72006928:	ff 25 f2 50 21 00    	jmpq   *0x2150f2(%rip)        # 7221ba20 <_GLOBAL_OFFSET_TABLE_+0x7a0>
    7200692e:	68 f1 00 00 00       	pushq  $0xf1
    72006933:	e9 d0 f0 ff ff       	jmpq   72005a08 <decode@plt-0x10>

0000000072006938 <dr_get_proc_address@plt>:
    72006938:	ff 25 ea 50 21 00    	jmpq   *0x2150ea(%rip)        # 7221ba28 <_GLOBAL_OFFSET_TABLE_+0x7a8>
    7200693e:	68 f2 00 00 00       	pushq  $0xf2
    72006943:	e9 c0 f0 ff ff       	jmpq   72005a08 <decode@plt-0x10>

0000000072006948 <instr_free@plt>:
    72006948:	ff 25 e2 50 21 00    	jmpq   *0x2150e2(%rip)        # 7221ba30 <_GLOBAL_OFFSET_TABLE_+0x7b0>
    7200694e:	68 f3 00 00 00       	pushq  $0xf3
    72006953:	e9 b0 f0 ff ff       	jmpq   72005a08 <decode@plt-0x10>

0000000072006958 <instr_create_1dst_1src@plt>:
    72006958:	ff 25 da 50 21 00    	jmpq   *0x2150da(%rip)        # 7221ba38 <_GLOBAL_OFFSET_TABLE_+0x7b8>
    7200695e:	68 f4 00 00 00       	pushq  $0xf4
    72006963:	e9 a0 f0 ff ff       	jmpq   72005a08 <decode@plt-0x10>

0000000072006968 <dr_register_fork_init_event@plt>:
    72006968:	ff 25 d2 50 21 00    	jmpq   *0x2150d2(%rip)        # 7221ba40 <_GLOBAL_OFFSET_TABLE_+0x7c0>
    7200696e:	68 f5 00 00 00       	pushq  $0xf5
    72006973:	e9 90 f0 ff ff       	jmpq   72005a08 <decode@plt-0x10>

0000000072006978 <instrlist_append@plt>:
    72006978:	ff 25 ca 50 21 00    	jmpq   *0x2150ca(%rip)        # 7221ba48 <_GLOBAL_OFFSET_TABLE_+0x7c8>
    7200697e:	68 f6 00 00 00       	pushq  $0xf6
    72006983:	e9 80 f0 ff ff       	jmpq   72005a08 <decode@plt-0x10>

0000000072006988 <free@plt>:
    72006988:	ff 25 c2 50 21 00    	jmpq   *0x2150c2(%rip)        # 7221ba50 <_GLOBAL_OFFSET_TABLE_+0x7d0>
    7200698e:	68 f7 00 00 00       	pushq  $0xf7
    72006993:	e9 70 f0 ff ff       	jmpq   72005a08 <decode@plt-0x10>

0000000072006998 <umbra_module_load@plt>:
    72006998:	ff 25 ba 50 21 00    	jmpq   *0x2150ba(%rip)        # 7221ba58 <_GLOBAL_OFFSET_TABLE_+0x7d8>
    7200699e:	68 f8 00 00 00       	pushq  $0xf8
    720069a3:	e9 60 f0 ff ff       	jmpq   72005a08 <decode@plt-0x10>

Disassembly of section .text:

00000000720069b0 <analyzer_thread_init>:
    720069b0:	f3 c3                	repz retq 
    720069b2:	66 66 66 66 66 2e 0f 	nopw   %cs:0x0(%rax,%rax,1)
    720069b9:	1f 84 00 00 00 00 00 

00000000720069c0 <analyzer_thread_exit>:
    720069c0:	f3 c3                	repz retq 
    720069c2:	66 66 66 66 66 2e 0f 	nopw   %cs:0x0(%rax,%rax,1)
    720069c9:	1f 84 00 00 00 00 00 

00000000720069d0 <opcode_is_rep_ins>:
    720069d0:	81 ff 80 01 00 00    	cmp    $0x180,%edi
    720069d6:	74 48                	je     72006a20 <opcode_is_rep_ins+0x50>
    720069d8:	81 ff 82 01 00 00    	cmp    $0x182,%edi
    720069de:	74 40                	je     72006a20 <opcode_is_rep_ins+0x50>
    720069e0:	81 ff 84 01 00 00    	cmp    $0x184,%edi
    720069e6:	74 38                	je     72006a20 <opcode_is_rep_ins+0x50>
    720069e8:	81 ff 86 01 00 00    	cmp    $0x186,%edi
    720069ee:	66 90                	xchg   %ax,%ax
    720069f0:	74 2e                	je     72006a20 <opcode_is_rep_ins+0x50>
    720069f2:	81 ff 88 01 00 00    	cmp    $0x188,%edi
    720069f8:	74 26                	je     72006a20 <opcode_is_rep_ins+0x50>
    720069fa:	81 ff 8a 01 00 00    	cmp    $0x18a,%edi
    72006a00:	74 1e                	je     72006a20 <opcode_is_rep_ins+0x50>
    72006a02:	81 ff 8d 01 00 00    	cmp    $0x18d,%edi
    72006a08:	74 16                	je     72006a20 <opcode_is_rep_ins+0x50>
    72006a0a:	81 ff 8b 01 00 00    	cmp    $0x18b,%edi
    72006a10:	74 0e                	je     72006a20 <opcode_is_rep_ins+0x50>
    72006a12:	31 c0                	xor    %eax,%eax
    72006a14:	81 ff 8e 01 00 00    	cmp    $0x18e,%edi
    72006a1a:	0f 94 c0             	sete   %al
    72006a1d:	c3                   	retq   
    72006a1e:	66 90                	xchg   %ax,%ax
    72006a20:	b8 01 00 00 00       	mov    $0x1,%eax
    72006a25:	c3                   	retq   
    72006a26:	66 2e 0f 1f 84 00 00 	nopw   %cs:0x0(%rax,%rax,1)
    72006a2d:	00 00 00 

0000000072006a30 <instr_is_rep_ins>:
    72006a30:	48 83 ec 08          	sub    $0x8,%rsp
    72006a34:	e8 ff f1 ff ff       	callq  72005c38 <instr_get_opcode@plt>
    72006a39:	48 83 c4 08          	add    $0x8,%rsp
    72006a3d:	89 c7                	mov    %eax,%edi
    72006a3f:	e9 a4 fc ff ff       	jmpq   720066e8 <opcode_is_rep_ins@plt>
    72006a44:	66 66 66 2e 0f 1f 84 	nopw   %cs:0x0(%rax,%rax,1)
    72006a4b:	00 00 00 00 00 

0000000072006a50 <instr_is_mangled>:
    72006a50:	53                   	push   %rbx
    72006a51:	48 89 fb             	mov    %rdi,%rbx
    72006a54:	e8 cf f7 ff ff       	callq  72006228 <instr_is_exit_cti@plt>
    72006a59:	85 c0                	test   %eax,%eax
    72006a5b:	74 0c                	je     72006a69 <instr_is_mangled+0x19>
    72006a5d:	48 89 df             	mov    %rbx,%rdi
    72006a60:	e8 93 f9 ff ff       	callq  720063f8 <instr_is_cti_short@plt>
    72006a65:	85 c0                	test   %eax,%eax
    72006a67:	75 0c                	jne    72006a75 <instr_is_mangled+0x25>
    72006a69:	48 89 df             	mov    %rbx,%rdi
    72006a6c:	e8 27 f8 ff ff       	callq  72006298 <instr_is_syscall@plt>
    72006a71:	85 c0                	test   %eax,%eax
    72006a73:	74 0b                	je     72006a80 <instr_is_mangled+0x30>
    72006a75:	b8 01 00 00 00       	mov    $0x1,%eax
    72006a7a:	5b                   	pop    %rbx
    72006a7b:	c3                   	retq   
    72006a7c:	0f 1f 40 00          	nopl   0x0(%rax)
    72006a80:	48 89 df             	mov    %rbx,%rdi
    72006a83:	e8 d0 f2 ff ff       	callq  72005d58 <instr_is_interrupt@plt>
    72006a88:	85 c0                	test   %eax,%eax
    72006a8a:	75 e9                	jne    72006a75 <instr_is_mangled+0x25>
    72006a8c:	48 89 df             	mov    %rbx,%rdi
    72006a8f:	e8 e4 f5 ff ff       	callq  72006078 <instr_is_mbr@plt>
    72006a94:	85 c0                	test   %eax,%eax
    72006a96:	75 dd                	jne    72006a75 <instr_is_mangled+0x25>
    72006a98:	48 89 df             	mov    %rbx,%rdi
    72006a9b:	e8 48 f5 ff ff       	callq  72005fe8 <instr_is_call@plt>
    72006aa0:	85 c0                	test   %eax,%eax
    72006aa2:	0f 95 c0             	setne  %al
    72006aa5:	0f b6 c0             	movzbl %al,%eax
    72006aa8:	5b                   	pop    %rbx
    72006aa9:	c3                   	retq   
    72006aaa:	66 0f 1f 44 00 00    	nopw   0x0(%rax,%rax,1)

0000000072006ab0 <register_is_used_for_mem>:
    72006ab0:	41 55                	push   %r13
    72006ab2:	41 54                	push   %r12
    72006ab4:	55                   	push   %rbp
    72006ab5:	48 89 fd             	mov    %rdi,%rbp
    72006ab8:	53                   	push   %rbx
    72006ab9:	89 f3                	mov    %esi,%ebx
    72006abb:	48 83 ec 28          	sub    $0x28,%rsp
    72006abf:	e8 74 f1 ff ff       	callq  72005c38 <instr_get_opcode@plt>
    72006ac4:	83 f8 3d             	cmp    $0x3d,%eax
    72006ac7:	0f 84 8b 00 00 00    	je     72006b58 <register_is_used_for_mem+0xa8>
    72006acd:	80 fb 12             	cmp    $0x12,%bl
    72006ad0:	0f 84 92 00 00 00    	je     72006b68 <register_is_used_for_mem+0xb8>
    72006ad6:	48 89 ef             	mov    %rbp,%rdi
    72006ad9:	44 0f b6 eb          	movzbl %bl,%r13d
    72006add:	e8 66 fc ff ff       	callq  72006748 <instr_num_srcs@plt>
    72006ae2:	85 c0                	test   %eax,%eax
    72006ae4:	41 89 c4             	mov    %eax,%r12d
    72006ae7:	0f 8e 93 00 00 00    	jle    72006b80 <register_is_used_for_mem+0xd0>
    72006aed:	31 db                	xor    %ebx,%ebx
    72006aef:	eb 13                	jmp    72006b04 <register_is_used_for_mem+0x54>
    72006af1:	0f 1f 80 00 00 00 00 	nopl   0x0(%rax)
    72006af8:	83 c3 01             	add    $0x1,%ebx
    72006afb:	41 39 dc             	cmp    %ebx,%r12d
    72006afe:	0f 8e 7c 00 00 00    	jle    72006b80 <register_is_used_for_mem+0xd0>
    72006b04:	89 de                	mov    %ebx,%esi
    72006b06:	48 89 ef             	mov    %rbp,%rdi
    72006b09:	e8 9a f6 ff ff       	callq  720061a8 <instr_get_src@plt>
    72006b0e:	89 04 24             	mov    %eax,(%rsp)
    72006b11:	48 8b 3c 24          	mov    (%rsp),%rdi
    72006b15:	48 89 d6             	mov    %rdx,%rsi
    72006b18:	48 89 54 24 08       	mov    %rdx,0x8(%rsp)
    72006b1d:	48 89 54 24 18       	mov    %rdx,0x18(%rsp)
    72006b22:	48 89 7c 24 10       	mov    %rdi,0x10(%rsp)
    72006b27:	e8 fc fc ff ff       	callq  72006828 <opnd_is_memory_reference@plt>
    72006b2c:	85 c0                	test   %eax,%eax
    72006b2e:	74 c8                	je     72006af8 <register_is_used_for_mem+0x48>
    72006b30:	8b 7c 24 10          	mov    0x10(%rsp),%edi
    72006b34:	48 8b 74 24 18       	mov    0x18(%rsp),%rsi
    72006b39:	44 89 ea             	mov    %r13d,%edx
    72006b3c:	e8 c7 fd ff ff       	callq  72006908 <opnd_uses_reg@plt>
    72006b41:	85 c0                	test   %eax,%eax
    72006b43:	74 b3                	je     72006af8 <register_is_used_for_mem+0x48>
    72006b45:	b8 01 00 00 00       	mov    $0x1,%eax
    72006b4a:	48 83 c4 28          	add    $0x28,%rsp
    72006b4e:	5b                   	pop    %rbx
    72006b4f:	5d                   	pop    %rbp
    72006b50:	41 5c                	pop    %r12
    72006b52:	41 5d                	pop    %r13
    72006b54:	c3                   	retq   
    72006b55:	0f 1f 00             	nopl   (%rax)
    72006b58:	48 83 c4 28          	add    $0x28,%rsp
    72006b5c:	31 c0                	xor    %eax,%eax
    72006b5e:	5b                   	pop    %rbx
    72006b5f:	5d                   	pop    %rbp
    72006b60:	41 5c                	pop    %r12
    72006b62:	41 5d                	pop    %r13
    72006b64:	c3                   	retq   
    72006b65:	0f 1f 00             	nopl   (%rax)
    72006b68:	48 89 ef             	mov    %rbp,%rdi
    72006b6b:	e8 08 fa ff ff       	callq  72006578 <instr_is_rep_ins@plt>
    72006b70:	85 c0                	test   %eax,%eax
    72006b72:	0f 84 5e ff ff ff    	je     72006ad6 <register_is_used_for_mem+0x26>
    72006b78:	b8 01 00 00 00       	mov    $0x1,%eax
    72006b7d:	eb cb                	jmp    72006b4a <register_is_used_for_mem+0x9a>
    72006b7f:	90                   	nop
    72006b80:	48 89 ef             	mov    %rbp,%rdi
    72006b83:	31 db                	xor    %ebx,%ebx
    72006b85:	e8 0e fb ff ff       	callq  72006698 <instr_num_dsts@plt>
    72006b8a:	85 c0                	test   %eax,%eax
    72006b8c:	41 89 c4             	mov    %eax,%r12d
    72006b8f:	7f 11                	jg     72006ba2 <register_is_used_for_mem+0xf2>
    72006b91:	eb c5                	jmp    72006b58 <register_is_used_for_mem+0xa8>
    72006b93:	0f 1f 44 00 00       	nopl   0x0(%rax,%rax,1)
    72006b98:	83 c3 01             	add    $0x1,%ebx
    72006b9b:	41 39 dc             	cmp    %ebx,%r12d
    72006b9e:	66 90                	xchg   %ax,%ax
    72006ba0:	7e b6                	jle    72006b58 <register_is_used_for_mem+0xa8>
    72006ba2:	89 de                	mov    %ebx,%esi
    72006ba4:	48 89 ef             	mov    %rbp,%rdi
    72006ba7:	e8 7c f0 ff ff       	callq  72005c28 <instr_get_dst@plt>
    72006bac:	89 04 24             	mov    %eax,(%rsp)
    72006baf:	48 8b 3c 24          	mov    (%rsp),%rdi
    72006bb3:	48 89 d6             	mov    %rdx,%rsi
    72006bb6:	48 89 54 24 08       	mov    %rdx,0x8(%rsp)
    72006bbb:	48 89 54 24 18       	mov    %rdx,0x18(%rsp)
    72006bc0:	48 89 7c 24 10       	mov    %rdi,0x10(%rsp)
    72006bc5:	e8 5e fc ff ff       	callq  72006828 <opnd_is_memory_reference@plt>
    72006bca:	85 c0                	test   %eax,%eax
    72006bcc:	74 ca                	je     72006b98 <register_is_used_for_mem+0xe8>
    72006bce:	8b 7c 24 10          	mov    0x10(%rsp),%edi
    72006bd2:	48 8b 74 24 18       	mov    0x18(%rsp),%rsi
    72006bd7:	44 89 ea             	mov    %r13d,%edx
    72006bda:	e8 29 fd ff ff       	callq  72006908 <opnd_uses_reg@plt>
    72006bdf:	85 c0                	test   %eax,%eax
    72006be1:	74 b5                	je     72006b98 <register_is_used_for_mem+0xe8>
    72006be3:	e9 5d ff ff ff       	jmpq   72006b45 <register_is_used_for_mem+0x95>
    72006be8:	0f 1f 84 00 00 00 00 	nopl   0x0(%rax,%rax,1)
    72006bef:	00 

0000000072006bf0 <register_is_used>:
    72006bf0:	48 89 5c 24 f0       	mov    %rbx,-0x10(%rsp)
    72006bf5:	48 89 6c 24 f8       	mov    %rbp,-0x8(%rsp)
    72006bfa:	48 83 ec 18          	sub    $0x18,%rsp
    72006bfe:	48 89 fb             	mov    %rdi,%rbx
    72006c01:	89 f5                	mov    %esi,%ebp
    72006c03:	e8 90 f6 ff ff       	callq  72006298 <instr_is_syscall@plt>
    72006c08:	85 c0                	test   %eax,%eax
    72006c0a:	74 14                	je     72006c20 <register_is_used+0x30>
    72006c0c:	b8 01 00 00 00       	mov    $0x1,%eax
    72006c11:	48 8b 5c 24 08       	mov    0x8(%rsp),%rbx
    72006c16:	48 8b 6c 24 10       	mov    0x10(%rsp),%rbp
    72006c1b:	48 83 c4 18          	add    $0x18,%rsp
    72006c1f:	c3                   	retq   
    72006c20:	48 89 df             	mov    %rbx,%rdi
    72006c23:	e8 30 f1 ff ff       	callq  72005d58 <instr_is_interrupt@plt>
    72006c28:	85 c0                	test   %eax,%eax
    72006c2a:	75 e0                	jne    72006c0c <register_is_used+0x1c>
    72006c2c:	40 0f b6 f5          	movzbl %bpl,%esi
    72006c30:	48 89 df             	mov    %rbx,%rdi
    72006c33:	48 8b 6c 24 10       	mov    0x10(%rsp),%rbp
    72006c38:	48 8b 5c 24 08       	mov    0x8(%rsp),%rbx
    72006c3d:	48 83 c4 18          	add    $0x18,%rsp
    72006c41:	e9 22 f7 ff ff       	jmpq   72006368 <instr_uses_reg@plt>
    72006c46:	66 2e 0f 1f 84 00 00 	nopw   %cs:0x0(%rax,%rax,1)
    72006c4d:	00 00 00 

0000000072006c50 <register_is_dead>:
    72006c50:	48 89 5c 24 e8       	mov    %rbx,-0x18(%rsp)
    72006c55:	48 89 6c 24 f0       	mov    %rbp,-0x10(%rsp)
    72006c5a:	48 89 fb             	mov    %rdi,%rbx
    72006c5d:	4c 89 64 24 f8       	mov    %r12,-0x8(%rsp)
    72006c62:	48 83 ec 58          	sub    $0x58,%rsp
    72006c66:	89 f5                	mov    %esi,%ebp
    72006c68:	e8 2b f6 ff ff       	callq  72006298 <instr_is_syscall@plt>
    72006c6d:	85 c0                	test   %eax,%eax
    72006c6f:	74 1f                	je     72006c90 <register_is_dead+0x40>
    72006c71:	31 c0                	xor    %eax,%eax
    72006c73:	48 8b 5c 24 40       	mov    0x40(%rsp),%rbx
    72006c78:	48 8b 6c 24 48       	mov    0x48(%rsp),%rbp
    72006c7d:	4c 8b 64 24 50       	mov    0x50(%rsp),%r12
    72006c82:	48 83 c4 58          	add    $0x58,%rsp
    72006c86:	c3                   	retq   
    72006c87:	66 0f 1f 84 00 00 00 	nopw   0x0(%rax,%rax,1)
    72006c8e:	00 00 
    72006c90:	48 89 df             	mov    %rbx,%rdi
    72006c93:	e8 c0 f0 ff ff       	callq  72005d58 <instr_is_interrupt@plt>
    72006c98:	85 c0                	test   %eax,%eax
    72006c9a:	75 d5                	jne    72006c71 <register_is_dead+0x21>
    72006c9c:	48 89 df             	mov    %rbx,%rdi
    72006c9f:	44 0f b6 e5          	movzbl %bpl,%r12d
    72006ca3:	e8 90 ef ff ff       	callq  72005c38 <instr_get_opcode@plt>
    72006ca8:	44 89 e6             	mov    %r12d,%esi
    72006cab:	48 89 df             	mov    %rbx,%rdi
    72006cae:	e8 d5 f5 ff ff       	callq  72006288 <instr_writes_to_exact_reg@plt>
    72006cb3:	85 c0                	test   %eax,%eax
    72006cb5:	0f 84 b5 00 00 00    	je     72006d70 <register_is_dead+0x120>
    72006cbb:	48 89 df             	mov    %rbx,%rdi
    72006cbe:	e8 75 ef ff ff       	callq  72005c38 <instr_get_opcode@plt>
    72006cc3:	83 f8 0a             	cmp    $0xa,%eax
    72006cc6:	89 c5                	mov    %eax,%ebp
    72006cc8:	74 36                	je     72006d00 <register_is_dead+0xb0>
    72006cca:	83 f8 0c             	cmp    $0xc,%eax
    72006ccd:	74 31                	je     72006d00 <register_is_dead+0xb0>
    72006ccf:	83 fd 37             	cmp    $0x37,%ebp
    72006cd2:	0f 84 b8 00 00 00    	je     72006d90 <register_is_dead+0x140>
    72006cd8:	83 fd 39             	cmp    $0x39,%ebp
    72006cdb:	0f 1f 44 00 00       	nopl   0x0(%rax,%rax,1)
    72006ce0:	74 7a                	je     72006d5c <register_is_dead+0x10c>
    72006ce2:	44 89 e6             	mov    %r12d,%esi
    72006ce5:	48 89 df             	mov    %rbx,%rdi
    72006ce8:	e8 6b f7 ff ff       	callq  72006458 <instr_reg_in_src@plt>
    72006ced:	85 c0                	test   %eax,%eax
    72006cef:	0f 94 c0             	sete   %al
    72006cf2:	0f b6 c0             	movzbl %al,%eax
    72006cf5:	e9 79 ff ff ff       	jmpq   72006c73 <register_is_dead+0x23>
    72006cfa:	66 0f 1f 44 00 00    	nopw   0x0(%rax,%rax,1)
    72006d00:	be 01 00 00 00       	mov    $0x1,%esi
    72006d05:	48 89 df             	mov    %rbx,%rdi
    72006d08:	e8 9b f4 ff ff       	callq  720061a8 <instr_get_src@plt>
    72006d0d:	89 04 24             	mov    %eax,(%rsp)
    72006d10:	48 8b 04 24          	mov    (%rsp),%rax
    72006d14:	31 f6                	xor    %esi,%esi
    72006d16:	48 89 df             	mov    %rbx,%rdi
    72006d19:	48 89 54 24 08       	mov    %rdx,0x8(%rsp)
    72006d1e:	48 89 54 24 38       	mov    %rdx,0x38(%rsp)
    72006d23:	48 89 44 24 30       	mov    %rax,0x30(%rsp)
    72006d28:	e8 7b f4 ff ff       	callq  720061a8 <instr_get_src@plt>
    72006d2d:	48 8b 4c 24 38       	mov    0x38(%rsp),%rcx
    72006d32:	48 89 d6             	mov    %rdx,%rsi
    72006d35:	89 04 24             	mov    %eax,(%rsp)
    72006d38:	48 89 54 24 08       	mov    %rdx,0x8(%rsp)
    72006d3d:	48 8b 3c 24          	mov    (%rsp),%rdi
    72006d41:	48 89 54 24 28       	mov    %rdx,0x28(%rsp)
    72006d46:	8b 54 24 30          	mov    0x30(%rsp),%edx
    72006d4a:	48 89 7c 24 20       	mov    %rdi,0x20(%rsp)
    72006d4f:	e8 44 ef ff ff       	callq  72005c98 <opnd_same@plt>
    72006d54:	85 c0                	test   %eax,%eax
    72006d56:	0f 84 73 ff ff ff    	je     72006ccf <register_is_dead+0x7f>
    72006d5c:	b8 01 00 00 00       	mov    $0x1,%eax
    72006d61:	e9 0d ff ff ff       	jmpq   72006c73 <register_is_dead+0x23>
    72006d66:	66 2e 0f 1f 84 00 00 	nopw   %cs:0x0(%rax,%rax,1)
    72006d6d:	00 00 00 
    72006d70:	44 89 e7             	mov    %r12d,%edi
    72006d73:	e8 20 f0 ff ff       	callq  72005d98 <reg_64_to_32@plt>
    72006d78:	48 89 df             	mov    %rbx,%rdi
    72006d7b:	0f b6 f0             	movzbl %al,%esi
    72006d7e:	e8 05 f5 ff ff       	callq  72006288 <instr_writes_to_exact_reg@plt>
    72006d83:	85 c0                	test   %eax,%eax
    72006d85:	0f 84 e6 fe ff ff    	je     72006c71 <register_is_dead+0x21>
    72006d8b:	e9 2b ff ff ff       	jmpq   72006cbb <register_is_dead+0x6b>
    72006d90:	31 f6                	xor    %esi,%esi
    72006d92:	48 89 df             	mov    %rbx,%rdi
    72006d95:	e8 0e f4 ff ff       	callq  720061a8 <instr_get_src@plt>
    72006d9a:	89 04 24             	mov    %eax,(%rsp)
    72006d9d:	48 8b 3c 24          	mov    (%rsp),%rdi
    72006da1:	48 89 d6             	mov    %rdx,%rsi
    72006da4:	48 89 54 24 08       	mov    %rdx,0x8(%rsp)
    72006da9:	48 89 54 24 18       	mov    %rdx,0x18(%rsp)
    72006dae:	48 89 7c 24 10       	mov    %rdi,0x10(%rsp)
    72006db3:	e8 e0 f3 ff ff       	callq  72006198 <opnd_is_immed@plt>
    72006db8:	85 c0                	test   %eax,%eax
    72006dba:	0f 84 22 ff ff ff    	je     72006ce2 <register_is_dead+0x92>
    72006dc0:	eb 9a                	jmp    72006d5c <register_is_dead+0x10c>
    72006dc2:	66 66 66 66 66 2e 0f 	nopw   %cs:0x0(%rax,%rax,1)
    72006dc9:	1f 84 00 00 00 00 00 

0000000072006dd0 <register_is_updated>:
    72006dd0:	48 89 5c 24 e8       	mov    %rbx,-0x18(%rsp)
    72006dd5:	48 89 6c 24 f0       	mov    %rbp,-0x10(%rsp)
    72006dda:	48 89 fb             	mov    %rdi,%rbx
    72006ddd:	4c 89 64 24 f8       	mov    %r12,-0x8(%rsp)
    72006de2:	48 83 ec 18          	sub    $0x18,%rsp
    72006de6:	89 f5                	mov    %esi,%ebp
    72006de8:	e8 ab f4 ff ff       	callq  72006298 <instr_is_syscall@plt>
    72006ded:	85 c0                	test   %eax,%eax
    72006def:	74 1f                	je     72006e10 <register_is_updated+0x40>
    72006df1:	b8 01 00 00 00       	mov    $0x1,%eax
    72006df6:	48 8b 1c 24          	mov    (%rsp),%rbx
    72006dfa:	48 8b 6c 24 08       	mov    0x8(%rsp),%rbp
    72006dff:	4c 8b 64 24 10       	mov    0x10(%rsp),%r12
    72006e04:	48 83 c4 18          	add    $0x18,%rsp
    72006e08:	c3                   	retq   
    72006e09:	0f 1f 80 00 00 00 00 	nopl   0x0(%rax)
    72006e10:	48 89 df             	mov    %rbx,%rdi
    72006e13:	e8 40 ef ff ff       	callq  72005d58 <instr_is_interrupt@plt>
    72006e18:	85 c0                	test   %eax,%eax
    72006e1a:	75 d5                	jne    72006df1 <register_is_updated+0x21>
    72006e1c:	48 89 df             	mov    %rbx,%rdi
    72006e1f:	e8 14 ee ff ff       	callq  72005c38 <instr_get_opcode@plt>
    72006e24:	40 0f b6 f5          	movzbl %bpl,%esi
    72006e28:	48 89 df             	mov    %rbx,%rdi
    72006e2b:	41 89 c4             	mov    %eax,%r12d
    72006e2e:	e8 c5 f2 ff ff       	callq  720060f8 <instr_writes_to_reg@plt>
    72006e33:	85 c0                	test   %eax,%eax
    72006e35:	75 ba                	jne    72006df1 <register_is_updated+0x21>
    72006e37:	40 80 fd 15          	cmp    $0x15,%bpl
    72006e3b:	75 b9                	jne    72006df6 <register_is_updated+0x26>
    72006e3d:	48 89 df             	mov    %rbx,%rdi
    72006e40:	e8 a3 f1 ff ff       	callq  72005fe8 <instr_is_call@plt>
    72006e45:	85 c0                	test   %eax,%eax
    72006e47:	75 a8                	jne    72006df1 <register_is_updated+0x21>
    72006e49:	41 83 fc 16          	cmp    $0x16,%r12d
    72006e4d:	74 a2                	je     72006df1 <register_is_updated+0x21>
    72006e4f:	41 83 fc 42          	cmp    $0x42,%r12d
    72006e53:	74 9c                	je     72006df1 <register_is_updated+0x21>
    72006e55:	41 83 fc 15          	cmp    $0x15,%r12d
    72006e59:	0f 94 c0             	sete   %al
    72006e5c:	41 83 fc 43          	cmp    $0x43,%r12d
    72006e60:	0f 94 c2             	sete   %dl
    72006e63:	09 d0                	or     %edx,%eax
    72006e65:	0f b6 c0             	movzbl %al,%eax
    72006e68:	eb 8c                	jmp    72006df6 <register_is_updated+0x26>
    72006e6a:	66 0f 1f 44 00 00    	nopw   0x0(%rax,%rax,1)

0000000072006e70 <add_mem_ref>:
    72006e70:	41 57                	push   %r15
    72006e72:	49 89 cf             	mov    %rcx,%r15
    72006e75:	41 56                	push   %r14
    72006e77:	49 89 fe             	mov    %rdi,%r14
    72006e7a:	41 55                	push   %r13
    72006e7c:	49 89 f5             	mov    %rsi,%r13
    72006e7f:	41 54                	push   %r12
    72006e81:	49 89 d4             	mov    %rdx,%r12
    72006e84:	55                   	push   %rbp
    72006e85:	53                   	push   %rbx
    72006e86:	48 83 ec 28          	sub    $0x28,%rsp
    72006e8a:	44 89 44 24 14       	mov    %r8d,0x14(%rsp)
    72006e8f:	4c 89 4c 24 08       	mov    %r9,0x8(%rsp)
    72006e94:	44 89 44 24 18       	mov    %r8d,0x18(%rsp)
    72006e99:	4c 89 4c 24 20       	mov    %r9,0x20(%rsp)
    72006e9e:	e8 d5 ed ff ff       	callq  72005c78 <table_alloc_ref@plt>
    72006ea3:	4c 89 ff             	mov    %r15,%rdi
    72006ea6:	48 89 c5             	mov    %rax,%rbp
    72006ea9:	e8 7a ec ff ff       	callq  72005b28 <instr_get_app_pc@plt>
    72006eae:	4c 89 ff             	mov    %r15,%rdi
    72006eb1:	48 89 45 08          	mov    %rax,0x8(%rbp)
    72006eb5:	e8 7e ed ff ff       	callq  72005c38 <instr_get_opcode@plt>
    72006eba:	89 45 10             	mov    %eax,0x10(%rbp)
    72006ebd:	8b 44 24 60          	mov    0x60(%rsp),%eax
    72006ec1:	4c 89 7d 18          	mov    %r15,0x18(%rbp)
    72006ec5:	48 c7 45 38 00 00 00 	movq   $0x0,0x38(%rbp)
    72006ecc:	00 
    72006ecd:	89 45 14             	mov    %eax,0x14(%rbp)
    72006ed0:	48 8b 44 24 08       	mov    0x8(%rsp),%rax
    72006ed5:	48 89 45 28          	mov    %rax,0x28(%rbp)
    72006ed9:	8b 44 24 14          	mov    0x14(%rsp),%eax
    72006edd:	89 45 20             	mov    %eax,0x20(%rbp)
    72006ee0:	41 8b 44 24 38       	mov    0x38(%r12),%eax
    72006ee5:	83 c0 01             	add    $0x1,%eax
    72006ee8:	83 f8 01             	cmp    $0x1,%eax
    72006eeb:	41 89 44 24 38       	mov    %eax,0x38(%r12)
    72006ef0:	0f 84 ea 00 00 00    	je     72006fe0 <add_mem_ref+0x170>
    72006ef6:	66 f7 45 00 ff 3f    	testw  $0x3fff,0x0(%rbp)
    72006efc:	0f 85 ce 00 00 00    	jne    72006fd0 <add_mem_ref+0x160>
    72006f02:	83 f8 01             	cmp    $0x1,%eax
    72006f05:	49 8b 5c 24 30       	mov    0x30(%r12),%rbx
    72006f0a:	48 89 ea             	mov    %rbp,%rdx
    72006f0d:	49 89 6c 24 30       	mov    %rbp,0x30(%r12)
    72006f12:	89 c1                	mov    %eax,%ecx
    72006f14:	bd 01 00 00 00       	mov    $0x1,%ebp
    72006f19:	7e 65                	jle    72006f80 <add_mem_ref+0x110>
    72006f1b:	0f 1f 44 00 00       	nopl   0x0(%rax,%rax,1)
    72006f20:	48 8b 43 08          	mov    0x8(%rbx),%rax
    72006f24:	83 c5 01             	add    $0x1,%ebp
    72006f27:	48 89 42 08          	mov    %rax,0x8(%rdx)
    72006f2b:	8b 43 10             	mov    0x10(%rbx),%eax
    72006f2e:	89 42 10             	mov    %eax,0x10(%rdx)
    72006f31:	8b 43 14             	mov    0x14(%rbx),%eax
    72006f34:	89 42 14             	mov    %eax,0x14(%rdx)
    72006f37:	48 8b 43 18          	mov    0x18(%rbx),%rax
    72006f3b:	48 89 42 18          	mov    %rax,0x18(%rdx)
    72006f3f:	48 8b 43 20          	mov    0x20(%rbx),%rax
    72006f43:	48 89 42 20          	mov    %rax,0x20(%rdx)
    72006f47:	48 8b 43 28          	mov    0x28(%rbx),%rax
    72006f4b:	48 89 42 28          	mov    %rax,0x28(%rdx)
    72006f4f:	48 8b 43 30          	mov    0x30(%rbx),%rax
    72006f53:	48 89 42 30          	mov    %rax,0x30(%rdx)
    72006f57:	48 8b 43 38          	mov    0x38(%rbx),%rax
    72006f5b:	48 83 c3 60          	add    $0x60,%rbx
    72006f5f:	39 cd                	cmp    %ecx,%ebp
    72006f61:	48 89 42 38          	mov    %rax,0x38(%rdx)
    72006f65:	7d 19                	jge    72006f80 <add_mem_ref+0x110>
    72006f67:	4c 89 ee             	mov    %r13,%rsi
    72006f6a:	4c 89 f7             	mov    %r14,%rdi
    72006f6d:	e8 06 ed ff ff       	callq  72005c78 <table_alloc_ref@plt>
    72006f72:	41 8b 4c 24 38       	mov    0x38(%r12),%ecx
    72006f77:	48 89 c2             	mov    %rax,%rdx
    72006f7a:	eb a4                	jmp    72006f20 <add_mem_ref+0xb0>
    72006f7c:	0f 1f 40 00          	nopl   0x0(%rax)
    72006f80:	4c 89 ee             	mov    %r13,%rsi
    72006f83:	4c 89 f7             	mov    %r14,%rdi
    72006f86:	e8 ed ec ff ff       	callq  72005c78 <table_alloc_ref@plt>
    72006f8b:	4c 89 ff             	mov    %r15,%rdi
    72006f8e:	48 89 c3             	mov    %rax,%rbx
    72006f91:	e8 92 eb ff ff       	callq  72005b28 <instr_get_app_pc@plt>
    72006f96:	4c 89 ff             	mov    %r15,%rdi
    72006f99:	48 89 43 08          	mov    %rax,0x8(%rbx)
    72006f9d:	e8 96 ec ff ff       	callq  72005c38 <instr_get_opcode@plt>
    72006fa2:	89 43 10             	mov    %eax,0x10(%rbx)
    72006fa5:	8b 44 24 60          	mov    0x60(%rsp),%eax
    72006fa9:	4c 89 7b 18          	mov    %r15,0x18(%rbx)
    72006fad:	48 c7 43 30 00 00 00 	movq   $0x0,0x30(%rbx)
    72006fb4:	00 
    72006fb5:	48 c7 43 38 00 00 00 	movq   $0x0,0x38(%rbx)
    72006fbc:	00 
    72006fbd:	89 43 14             	mov    %eax,0x14(%rbx)
    72006fc0:	48 8b 44 24 08       	mov    0x8(%rsp),%rax
    72006fc5:	48 89 43 28          	mov    %rax,0x28(%rbx)
    72006fc9:	8b 44 24 14          	mov    0x14(%rsp),%eax
    72006fcd:	89 43 20             	mov    %eax,0x20(%rbx)
    72006fd0:	48 83 c4 28          	add    $0x28,%rsp
    72006fd4:	5b                   	pop    %rbx
    72006fd5:	5d                   	pop    %rbp
    72006fd6:	41 5c                	pop    %r12
    72006fd8:	41 5d                	pop    %r13
    72006fda:	41 5e                	pop    %r14
    72006fdc:	41 5f                	pop    %r15
    72006fde:	c3                   	retq   
    72006fdf:	90                   	nop
    72006fe0:	49 89 6c 24 30       	mov    %rbp,0x30(%r12)
    72006fe5:	48 83 c4 28          	add    $0x28,%rsp
    72006fe9:	5b                   	pop    %rbx
    72006fea:	5d                   	pop    %rbp
    72006feb:	41 5c                	pop    %r12
    72006fed:	41 5d                	pop    %r13
    72006fef:	41 5e                	pop    %r14
    72006ff1:	41 5f                	pop    %r15
    72006ff3:	c3                   	retq   
    72006ff4:	66 66 66 2e 0f 1f 84 	nopw   %cs:0x0(%rax,%rax,1)
    72006ffb:	00 00 00 00 00 

0000000072007000 <analyzer_basic_block>:
    72007000:	41 57                	push   %r15
    72007002:	41 56                	push   %r14
    72007004:	41 55                	push   %r13
    72007006:	41 54                	push   %r12
    72007008:	49 89 d4             	mov    %rdx,%r12
    7200700b:	55                   	push   %rbp
    7200700c:	53                   	push   %rbx
    7200700d:	48 81 ec c8 00 00 00 	sub    $0xc8,%rsp
    72007014:	48 89 7c 24 18       	mov    %rdi,0x18(%rsp)
    72007019:	48 89 cf             	mov    %rcx,%rdi
    7200701c:	48 89 74 24 10       	mov    %rsi,0x10(%rsp)
    72007021:	e8 e2 ed ff ff       	callq  72005e08 <instrlist_first@plt>
    72007026:	48 85 c0             	test   %rax,%rax
    72007029:	48 89 c3             	mov    %rax,%rbx
    7200702c:	75 24                	jne    72007052 <analyzer_basic_block+0x52>
    7200702e:	e9 fd 01 00 00       	jmpq   72007230 <analyzer_basic_block+0x230>
    72007033:	0f 1f 44 00 00       	nopl   0x0(%rax,%rax,1)
    72007038:	41 83 44 24 3c 01    	addl   $0x1,0x3c(%r12)
    7200703e:	48 89 df             	mov    %rbx,%rdi
    72007041:	e8 22 f4 ff ff       	callq  72006468 <instr_get_next@plt>
    72007046:	48 85 c0             	test   %rax,%rax
    72007049:	48 89 c3             	mov    %rax,%rbx
    7200704c:	0f 84 de 01 00 00    	je     72007230 <analyzer_basic_block+0x230>
    72007052:	48 89 df             	mov    %rbx,%rdi
    72007055:	e8 ce ea ff ff       	callq  72005b28 <instr_get_app_pc@plt>
    7200705a:	48 85 c0             	test   %rax,%rax
    7200705d:	74 df                	je     7200703e <analyzer_basic_block+0x3e>
    7200705f:	48 89 df             	mov    %rbx,%rdi
    72007062:	e8 c1 ea ff ff       	callq  72005b28 <instr_get_app_pc@plt>
    72007067:	48 85 c0             	test   %rax,%rax
    7200706a:	74 cc                	je     72007038 <analyzer_basic_block+0x38>
    7200706c:	48 89 df             	mov    %rbx,%rdi
    7200706f:	e8 e4 ec ff ff       	callq  72005d58 <instr_is_interrupt@plt>
    72007074:	85 c0                	test   %eax,%eax
    72007076:	75 c0                	jne    72007038 <analyzer_basic_block+0x38>
    72007078:	48 89 df             	mov    %rbx,%rdi
    7200707b:	e8 18 f2 ff ff       	callq  72006298 <instr_is_syscall@plt>
    72007080:	85 c0                	test   %eax,%eax
    72007082:	75 b4                	jne    72007038 <analyzer_basic_block+0x38>
    72007084:	48 89 df             	mov    %rbx,%rdi
    72007087:	e8 ac eb ff ff       	callq  72005c38 <instr_get_opcode@plt>
    7200708c:	83 f8 3d             	cmp    $0x3d,%eax
    7200708f:	90                   	nop
    72007090:	74 a6                	je     72007038 <analyzer_basic_block+0x38>
    72007092:	83 f8 65             	cmp    $0x65,%eax
    72007095:	74 a1                	je     72007038 <analyzer_basic_block+0x38>
    72007097:	2d 1f 01 00 00       	sub    $0x11f,%eax
    7200709c:	83 f8 05             	cmp    $0x5,%eax
    7200709f:	90                   	nop
    720070a0:	76 96                	jbe    72007038 <analyzer_basic_block+0x38>
    720070a2:	48 89 df             	mov    %rbx,%rdi
    720070a5:	31 ed                	xor    %ebp,%ebp
    720070a7:	45 31 f6             	xor    %r14d,%r14d
    720070aa:	e8 99 f6 ff ff       	callq  72006748 <instr_num_srcs@plt>
    720070af:	85 c0                	test   %eax,%eax
    720070b1:	41 89 c5             	mov    %eax,%r13d
    720070b4:	7e 6b                	jle    72007121 <analyzer_basic_block+0x121>
    720070b6:	66 2e 0f 1f 84 00 00 	nopw   %cs:0x0(%rax,%rax,1)
    720070bd:	00 00 00 
    720070c0:	89 ee                	mov    %ebp,%esi
    720070c2:	48 89 df             	mov    %rbx,%rdi
    720070c5:	e8 de f0 ff ff       	callq  720061a8 <instr_get_src@plt>
    720070ca:	89 44 24 20          	mov    %eax,0x20(%rsp)
    720070ce:	48 8b 7c 24 20       	mov    0x20(%rsp),%rdi
    720070d3:	48 89 d6             	mov    %rdx,%rsi
    720070d6:	48 89 54 24 28       	mov    %rdx,0x28(%rsp)
    720070db:	48 89 94 24 b8 00 00 	mov    %rdx,0xb8(%rsp)
    720070e2:	00 
    720070e3:	48 89 bc 24 b0 00 00 	mov    %rdi,0xb0(%rsp)
    720070ea:	00 
    720070eb:	e8 38 f7 ff ff       	callq  72006828 <opnd_is_memory_reference@plt>
    720070f0:	85 c0                	test   %eax,%eax
    720070f2:	74 25                	je     72007119 <analyzer_basic_block+0x119>
    720070f4:	48 8b 94 24 b0 00 00 	mov    0xb0(%rsp),%rdx
    720070fb:	00 
    720070fc:	49 63 c6             	movslq %r14d,%rax
    720070ff:	41 83 c6 01          	add    $0x1,%r14d
    72007103:	48 c1 e0 04          	shl    $0x4,%rax
    72007107:	48 89 54 04 70       	mov    %rdx,0x70(%rsp,%rax,1)
    7200710c:	48 8b 94 24 b8 00 00 	mov    0xb8(%rsp),%rdx
    72007113:	00 
    72007114:	48 89 54 04 78       	mov    %rdx,0x78(%rsp,%rax,1)
    72007119:	83 c5 01             	add    $0x1,%ebp
    7200711c:	41 39 ed             	cmp    %ebp,%r13d
    7200711f:	7f 9f                	jg     720070c0 <analyzer_basic_block+0xc0>
    72007121:	48 89 df             	mov    %rbx,%rdi
    72007124:	e8 6f f5 ff ff       	callq  72006698 <instr_num_dsts@plt>
    72007129:	85 c0                	test   %eax,%eax
    7200712b:	41 89 c7             	mov    %eax,%r15d
    7200712e:	0f 8e 76 01 00 00    	jle    720072aa <analyzer_basic_block+0x2aa>
    72007134:	31 ed                	xor    %ebp,%ebp
    72007136:	45 31 ed             	xor    %r13d,%r13d
    72007139:	0f 1f 80 00 00 00 00 	nopl   0x0(%rax)
    72007140:	89 ee                	mov    %ebp,%esi
    72007142:	48 89 df             	mov    %rbx,%rdi
    72007145:	e8 de ea ff ff       	callq  72005c28 <instr_get_dst@plt>
    7200714a:	89 44 24 20          	mov    %eax,0x20(%rsp)
    7200714e:	48 8b 7c 24 20       	mov    0x20(%rsp),%rdi
    72007153:	48 89 d6             	mov    %rdx,%rsi
    72007156:	48 89 54 24 28       	mov    %rdx,0x28(%rsp)
    7200715b:	48 89 94 24 b8 00 00 	mov    %rdx,0xb8(%rsp)
    72007162:	00 
    72007163:	48 89 bc 24 b0 00 00 	mov    %rdi,0xb0(%rsp)
    7200716a:	00 
    7200716b:	e8 b8 f6 ff ff       	callq  72006828 <opnd_is_memory_reference@plt>
    72007170:	85 c0                	test   %eax,%eax
    72007172:	74 25                	je     72007199 <analyzer_basic_block+0x199>
    72007174:	48 8b 94 24 b0 00 00 	mov    0xb0(%rsp),%rdx
    7200717b:	00 
    7200717c:	49 63 c5             	movslq %r13d,%rax
    7200717f:	41 83 c5 01          	add    $0x1,%r13d
    72007183:	48 c1 e0 04          	shl    $0x4,%rax
    72007187:	48 89 54 04 30       	mov    %rdx,0x30(%rsp,%rax,1)
    7200718c:	48 8b 94 24 b8 00 00 	mov    0xb8(%rsp),%rdx
    72007193:	00 
    72007194:	48 89 54 04 38       	mov    %rdx,0x38(%rsp,%rax,1)
    72007199:	83 c5 01             	add    $0x1,%ebp
    7200719c:	41 39 ef             	cmp    %ebp,%r15d
    7200719f:	7f 9f                	jg     72007140 <analyzer_basic_block+0x140>
    720071a1:	41 83 fe 01          	cmp    $0x1,%r14d
    720071a5:	0f 84 ab 00 00 00    	je     72007256 <analyzer_basic_block+0x256>
    720071ab:	45 85 f6             	test   %r14d,%r14d
    720071ae:	74 37                	je     720071e7 <analyzer_basic_block+0x1e7>
    720071b0:	31 ed                	xor    %ebp,%ebp
    720071b2:	48 63 c5             	movslq %ebp,%rax
    720071b5:	48 8b 74 24 10       	mov    0x10(%rsp),%rsi
    720071ba:	48 8b 7c 24 18       	mov    0x18(%rsp),%rdi
    720071bf:	48 c1 e0 04          	shl    $0x4,%rax
    720071c3:	48 89 d9             	mov    %rbx,%rcx
    720071c6:	4c 89 e2             	mov    %r12,%rdx
    720071c9:	44 8b 44 04 70       	mov    0x70(%rsp,%rax,1),%r8d
    720071ce:	4c 8b 4c 04 78       	mov    0x78(%rsp,%rax,1),%r9
    720071d3:	83 c5 01             	add    $0x1,%ebp
    720071d6:	c7 04 24 01 00 00 00 	movl   $0x1,(%rsp)
    720071dd:	e8 8e fc ff ff       	callq  72006e70 <add_mem_ref>
    720071e2:	44 39 f5             	cmp    %r14d,%ebp
    720071e5:	7c cb                	jl     720071b2 <analyzer_basic_block+0x1b2>
    720071e7:	45 85 ed             	test   %r13d,%r13d
    720071ea:	0f 84 48 fe ff ff    	je     72007038 <analyzer_basic_block+0x38>
    720071f0:	31 ed                	xor    %ebp,%ebp
    720071f2:	48 63 c5             	movslq %ebp,%rax
    720071f5:	48 8b 74 24 10       	mov    0x10(%rsp),%rsi
    720071fa:	48 8b 7c 24 18       	mov    0x18(%rsp),%rdi
    720071ff:	48 c1 e0 04          	shl    $0x4,%rax
    72007203:	48 89 d9             	mov    %rbx,%rcx
    72007206:	4c 89 e2             	mov    %r12,%rdx
    72007209:	44 8b 44 04 30       	mov    0x30(%rsp,%rax,1),%r8d
    7200720e:	4c 8b 4c 04 38       	mov    0x38(%rsp,%rax,1),%r9
    72007213:	83 c5 01             	add    $0x1,%ebp
    72007216:	c7 04 24 02 00 00 00 	movl   $0x2,(%rsp)
    7200721d:	e8 4e fc ff ff       	callq  72006e70 <add_mem_ref>
    72007222:	44 39 ed             	cmp    %r13d,%ebp
    72007225:	7c cb                	jl     720071f2 <analyzer_basic_block+0x1f2>
    72007227:	e9 0c fe ff ff       	jmpq   72007038 <analyzer_basic_block+0x38>
    7200722c:	0f 1f 40 00          	nopl   0x0(%rax)
    72007230:	48 8b 54 24 10       	mov    0x10(%rsp),%rdx
    72007235:	49 63 44 24 3c       	movslq 0x3c(%r12),%rax
    7200723a:	48 01 82 70 04 00 00 	add    %rax,0x470(%rdx)
    72007241:	48 81 c4 c8 00 00 00 	add    $0xc8,%rsp
    72007248:	4c 89 e0             	mov    %r12,%rax
    7200724b:	5b                   	pop    %rbx
    7200724c:	5d                   	pop    %rbp
    7200724d:	41 5c                	pop    %r12
    7200724f:	41 5d                	pop    %r13
    72007251:	41 5e                	pop    %r14
    72007253:	41 5f                	pop    %r15
    72007255:	c3                   	retq   
    72007256:	41 83 fd 01          	cmp    $0x1,%r13d
    7200725a:	0f 85 50 ff ff ff    	jne    720071b0 <analyzer_basic_block+0x1b0>
    72007260:	8b 54 24 30          	mov    0x30(%rsp),%edx
    72007264:	48 8b 4c 24 38       	mov    0x38(%rsp),%rcx
    72007269:	8b 7c 24 70          	mov    0x70(%rsp),%edi
    7200726d:	48 8b 74 24 78       	mov    0x78(%rsp),%rsi
    72007272:	e8 21 ea ff ff       	callq  72005c98 <opnd_same@plt>
    72007277:	85 c0                	test   %eax,%eax
    72007279:	0f 84 31 ff ff ff    	je     720071b0 <analyzer_basic_block+0x1b0>
    7200727f:	44 8b 44 24 70       	mov    0x70(%rsp),%r8d
    72007284:	4c 8b 4c 24 78       	mov    0x78(%rsp),%r9
    72007289:	48 89 d9             	mov    %rbx,%rcx
    7200728c:	48 8b 74 24 10       	mov    0x10(%rsp),%rsi
    72007291:	48 8b 7c 24 18       	mov    0x18(%rsp),%rdi
    72007296:	4c 89 e2             	mov    %r12,%rdx
    72007299:	c7 04 24 03 00 00 00 	movl   $0x3,(%rsp)
    720072a0:	e8 cb fb ff ff       	callq  72006e70 <add_mem_ref>
    720072a5:	e9 8e fd ff ff       	jmpq   72007038 <analyzer_basic_block+0x38>
    720072aa:	45 31 ed             	xor    %r13d,%r13d
    720072ad:	e9 f9 fe ff ff       	jmpq   720071ab <analyzer_basic_block+0x1ab>
    720072b2:	66 66 66 66 66 2e 0f 	nopw   %cs:0x0(%rax,%rax,1)
    720072b9:	1f 84 00 00 00 00 00 

00000000720072c0 <analyzer_update_bb>:
    720072c0:	41 56                	push   %r14
    720072c2:	49 89 ce             	mov    %rcx,%r14
    720072c5:	41 55                	push   %r13
    720072c7:	49 89 d5             	mov    %rdx,%r13
    720072ca:	41 54                	push   %r12
    720072cc:	55                   	push   %rbp
    720072cd:	48 89 f5             	mov    %rsi,%rbp
    720072d0:	53                   	push   %rbx
    720072d1:	f6 42 10 10          	testb  $0x10,0x10(%rdx)
    720072d5:	0f 85 bd 00 00 00    	jne    72007398 <analyzer_update_bb+0xd8>
    720072db:	45 31 e4             	xor    %r12d,%r12d
    720072de:	4c 89 f7             	mov    %r14,%rdi
    720072e1:	e8 f2 ef ff ff       	callq  720062d8 <instrlist_last@plt>
    720072e6:	48 85 c0             	test   %rax,%rax
    720072e9:	48 89 c3             	mov    %rax,%rbx
    720072ec:	0f 84 7e 00 00 00    	je     72007370 <analyzer_update_bb+0xb0>
    720072f2:	41 be 01 00 00 00    	mov    $0x1,%r14d
    720072f8:	0f 1f 84 00 00 00 00 	nopl   0x0(%rax,%rax,1)
    720072ff:	00 
    72007300:	48 89 df             	mov    %rbx,%rdi
    72007303:	e8 20 e8 ff ff       	callq  72005b28 <instr_get_app_pc@plt>
    72007308:	48 85 c0             	test   %rax,%rax
    7200730b:	48 89 c5             	mov    %rax,%rbp
    7200730e:	74 50                	je     72007360 <analyzer_update_bb+0xa0>
    72007310:	48 89 df             	mov    %rbx,%rdi
    72007313:	e8 10 eb ff ff       	callq  72005e28 <instr_get_arith_flags@plt>
    72007318:	a9 1f 01 00 00       	test   $0x11f,%eax
    7200731d:	74 69                	je     72007388 <analyzer_update_bb+0xc8>
    7200731f:	45 31 e4             	xor    %r12d,%r12d
    72007322:	41 8b 45 38          	mov    0x38(%r13),%eax
    72007326:	85 c0                	test   %eax,%eax
    72007328:	7e 36                	jle    72007360 <analyzer_update_bb+0xa0>
    7200732a:	83 e8 01             	sub    $0x1,%eax
    7200732d:	49 8b 4d 30          	mov    0x30(%r13),%rcx
    72007331:	31 d2                	xor    %edx,%edx
    72007333:	48 8d 44 40 03       	lea    0x3(%rax,%rax,2),%rax
    72007338:	48 c1 e0 05          	shl    $0x5,%rax
    7200733c:	eb 0b                	jmp    72007349 <analyzer_update_bb+0x89>
    7200733e:	66 90                	xchg   %ax,%ax
    72007340:	48 83 c2 60          	add    $0x60,%rdx
    72007344:	48 39 c2             	cmp    %rax,%rdx
    72007347:	74 17                	je     72007360 <analyzer_update_bb+0xa0>
    72007349:	48 3b 6c 11 08       	cmp    0x8(%rcx,%rdx,1),%rbp
    7200734e:	75 f0                	jne    72007340 <analyzer_update_bb+0x80>
    72007350:	48 89 5c 11 18       	mov    %rbx,0x18(%rcx,%rdx,1)
    72007355:	48 83 c2 60          	add    $0x60,%rdx
    72007359:	48 39 c2             	cmp    %rax,%rdx
    7200735c:	75 eb                	jne    72007349 <analyzer_update_bb+0x89>
    7200735e:	66 90                	xchg   %ax,%ax
    72007360:	48 89 df             	mov    %rbx,%rdi
    72007363:	e8 b0 ec ff ff       	callq  72006018 <instr_get_prev@plt>
    72007368:	48 85 c0             	test   %rax,%rax
    7200736b:	48 89 c3             	mov    %rax,%rbx
    7200736e:	75 90                	jne    72007300 <analyzer_update_bb+0x40>
    72007370:	41 83 ec 01          	sub    $0x1,%r12d
    72007374:	75 05                	jne    7200737b <analyzer_update_bb+0xbb>
    72007376:	41 83 4d 10 02       	orl    $0x2,0x10(%r13)
    7200737b:	5b                   	pop    %rbx
    7200737c:	5d                   	pop    %rbp
    7200737d:	41 5c                	pop    %r12
    7200737f:	41 5d                	pop    %r13
    72007381:	41 5e                	pop    %r14
    72007383:	c3                   	retq   
    72007384:	0f 1f 40 00          	nopl   0x0(%rax)
    72007388:	25 00 f8 08 00       	and    $0x8f800,%eax
    7200738d:	3d 00 f8 08 00       	cmp    $0x8f800,%eax
    72007392:	45 0f 44 e6          	cmove  %r14d,%r12d
    72007396:	eb 8a                	jmp    72007322 <analyzer_update_bb+0x62>
    72007398:	48 89 d6             	mov    %rdx,%rsi
    7200739b:	48 89 ef             	mov    %rbp,%rdi
    7200739e:	41 bc 01 00 00 00    	mov    $0x1,%r12d
    720073a4:	e8 1f e7 ff ff       	callq  72005ac8 <cfg_bb_get_first_outgoing_edge@plt>
    720073a9:	8b 10                	mov    (%rax),%edx
    720073ab:	48 89 c3             	mov    %rax,%rbx
    720073ae:	85 d2                	test   %edx,%edx
    720073b0:	0f 84 28 ff ff ff    	je     720072de <analyzer_update_bb+0x1e>
    720073b6:	f6 40 18 40          	testb  $0x40,0x18(%rax)
    720073ba:	41 bc 01 00 00 00    	mov    $0x1,%r12d
    720073c0:	74 18                	je     720073da <analyzer_update_bb+0x11a>
    720073c2:	e9 14 ff ff ff       	jmpq   720072db <analyzer_update_bb+0x1b>
    720073c7:	66 0f 1f 84 00 00 00 	nopw   0x0(%rax,%rax,1)
    720073ce:	00 00 
    720073d0:	f6 43 18 40          	testb  $0x40,0x18(%rbx)
    720073d4:	0f 85 01 ff ff ff    	jne    720072db <analyzer_update_bb+0x1b>
    720073da:	83 7b 1c ff          	cmpl   $0xffffffffffffffff,0x1c(%rbx)
    720073de:	66 90                	xchg   %ax,%ax
    720073e0:	74 1f                	je     72007401 <analyzer_update_bb+0x141>
    720073e2:	8b 73 14             	mov    0x14(%rbx),%esi
    720073e5:	48 89 ef             	mov    %rbp,%rdi
    720073e8:	e8 6b ef ff ff       	callq  72006358 <cfg_get_bb@plt>
    720073ed:	45 85 e4             	test   %r12d,%r12d
    720073f0:	44 8b 60 10          	mov    0x10(%rax),%r12d
    720073f4:	0f 95 c2             	setne  %dl
    720073f7:	41 d1 ec             	shr    %r12d
    720073fa:	41 83 e4 01          	and    $0x1,%r12d
    720073fe:	41 21 d4             	and    %edx,%r12d
    72007401:	48 89 de             	mov    %rbx,%rsi
    72007404:	48 89 ef             	mov    %rbp,%rdi
    72007407:	e8 1c eb ff ff       	callq  72005f28 <cfg_edge_get_next_outgoing_edge@plt>
    7200740c:	48 89 c3             	mov    %rax,%rbx
    7200740f:	8b 00                	mov    (%rax),%eax
    72007411:	85 c0                	test   %eax,%eax
    72007413:	75 bb                	jne    720073d0 <analyzer_update_bb+0x110>
    72007415:	e9 c4 fe ff ff       	jmpq   720072de <analyzer_update_bb+0x1e>
    7200741a:	90                   	nop
    7200741b:	90                   	nop
    7200741c:	90                   	nop
    7200741d:	90                   	nop
    7200741e:	90                   	nop
    7200741f:	90                   	nop

0000000072007420 <cfg_thread_init>:
    72007420:	f3 c3                	repz retq 
    72007422:	66 66 66 66 66 2e 0f 	nopw   %cs:0x0(%rax,%rax,1)
    72007429:	1f 84 00 00 00 00 00 

0000000072007430 <cfg_get_bb>:
    72007430:	e9 63 e6 ff ff       	jmpq   72005a98 <table_get_bb@plt>
    72007435:	66 66 2e 0f 1f 84 00 	nopw   %cs:0x0(%rax,%rax,1)
    7200743c:	00 00 00 00 

0000000072007440 <cfg_thread_exit>:
    72007440:	41 54                	push   %r12
    72007442:	49 89 f4             	mov    %rsi,%r12
    72007445:	55                   	push   %rbp
    72007446:	53                   	push   %rbx
    72007447:	8b ae 38 01 00 00    	mov    0x138(%rsi),%ebp
    7200744d:	83 fd 01             	cmp    $0x1,%ebp
    72007450:	7e 1f                	jle    72007471 <cfg_thread_exit+0x31>
    72007452:	bb 01 00 00 00       	mov    $0x1,%ebx
    72007457:	66 0f 1f 84 00 00 00 	nopw   0x0(%rax,%rax,1)
    7200745e:	00 00 
    72007460:	89 de                	mov    %ebx,%esi
    72007462:	4c 89 e7             	mov    %r12,%rdi
    72007465:	83 c3 01             	add    $0x1,%ebx
    72007468:	e8 eb ee ff ff       	callq  72006358 <cfg_get_bb@plt>
    7200746d:	39 dd                	cmp    %ebx,%ebp
    7200746f:	7f ef                	jg     72007460 <cfg_thread_exit+0x20>
    72007471:	5b                   	pop    %rbx
    72007472:	5d                   	pop    %rbp
    72007473:	41 5c                	pop    %r12
    72007475:	c3                   	retq   
    72007476:	66 2e 0f 1f 84 00 00 	nopw   %cs:0x0(%rax,%rax,1)
    7200747d:	00 00 00 

0000000072007480 <cfg_edge_get_next_outgoing_edge>:
    72007480:	8b 76 24             	mov    0x24(%rsi),%esi
    72007483:	e9 70 ea ff ff       	jmpq   72005ef8 <table_get_edge@plt>
    72007488:	0f 1f 84 00 00 00 00 	nopl   0x0(%rax,%rax,1)
    7200748f:	00 

0000000072007490 <cfg_bb_get_first_outgoing_edge>:
    72007490:	8b 76 24             	mov    0x24(%rsi),%esi
    72007493:	e9 60 ea ff ff       	jmpq   72005ef8 <table_get_edge@plt>
    72007498:	0f 1f 84 00 00 00 00 	nopl   0x0(%rax,%rax,1)
    7200749f:	00 

00000000720074a0 <cfg_basic_block>:
    720074a0:	41 57                	push   %r15
    720074a2:	49 89 f7             	mov    %rsi,%r15
    720074a5:	41 56                	push   %r14
    720074a7:	49 89 fe             	mov    %rdi,%r14
    720074aa:	48 89 cf             	mov    %rcx,%rdi
    720074ad:	41 55                	push   %r13
    720074af:	41 54                	push   %r12
    720074b1:	49 89 d4             	mov    %rdx,%r12
    720074b4:	55                   	push   %rbp
    720074b5:	31 ed                	xor    %ebp,%ebp
    720074b7:	53                   	push   %rbx
    720074b8:	48 83 ec 48          	sub    $0x48,%rsp
    720074bc:	48 89 4c 24 08       	mov    %rcx,0x8(%rsp)
    720074c1:	e8 42 e9 ff ff       	callq  72005e08 <instrlist_first@plt>
    720074c6:	48 85 c0             	test   %rax,%rax
    720074c9:	48 89 c3             	mov    %rax,%rbx
    720074cc:	75 54                	jne    72007522 <cfg_basic_block+0x82>
    720074ce:	e9 95 00 00 00       	jmpq   72007568 <cfg_basic_block+0xc8>
    720074d3:	0f 1f 44 00 00       	nopl   0x0(%rax,%rax,1)
    720074d8:	4c 8d 0d 61 0e 01 00 	lea    0x10e61(%rip),%r9        # 72018340 <main+0x4b0>
    720074df:	4c 8d 05 82 0e 01 00 	lea    0x10e82(%rip),%r8        # 72018368 <main+0x4d8>
    720074e6:	48 8d 15 ab 0e 01 00 	lea    0x10eab(%rip),%rdx        # 72018398 <main+0x508>
    720074ed:	48 8d 35 dc 0e 01 00 	lea    0x10edc(%rip),%rsi        # 720183d0 <main+0x540>
    720074f4:	b9 2e 01 00 00       	mov    $0x12e,%ecx
    720074f9:	31 c0                	xor    %eax,%eax
    720074fb:	e8 b8 ec ff ff       	callq  720061b8 <dr_fprintf@plt>
    72007500:	e8 a3 f1 ff ff       	callq  720066a8 <dr_abort@plt>
    72007505:	48 89 de             	mov    %rbx,%rsi
    72007508:	4c 89 f7             	mov    %r14,%rdi
    7200750b:	e8 58 e9 ff ff       	callq  72005e68 <instr_length@plt>
    72007510:	01 c5                	add    %eax,%ebp
    72007512:	48 89 df             	mov    %rbx,%rdi
    72007515:	e8 4e ef ff ff       	callq  72006468 <instr_get_next@plt>
    7200751a:	48 85 c0             	test   %rax,%rax
    7200751d:	48 89 c3             	mov    %rax,%rbx
    72007520:	74 46                	je     72007568 <cfg_basic_block+0xc8>
    72007522:	48 89 df             	mov    %rbx,%rdi
    72007525:	e8 fe e5 ff ff       	callq  72005b28 <instr_get_app_pc@plt>
    7200752a:	48 85 c0             	test   %rax,%rax
    7200752d:	74 e3                	je     72007512 <cfg_basic_block+0x72>
    7200752f:	48 89 df             	mov    %rbx,%rdi
    72007532:	e8 f1 e5 ff ff       	callq  72005b28 <instr_get_app_pc@plt>
    72007537:	48 63 d5             	movslq %ebp,%rdx
    7200753a:	49 8d 14 14          	lea    (%r12,%rdx,1),%rdx
    7200753e:	48 39 d0             	cmp    %rdx,%rax
    72007541:	74 c2                	je     72007505 <cfg_basic_block+0x65>
    72007543:	48 8b 05 0e 3d 21 00 	mov    0x213d0e(%rip),%rax        # 7221b258 <_DYNAMIC+0x1d8>
    7200754a:	8b 38                	mov    (%rax),%edi
    7200754c:	83 ff ff             	cmp    $0xffffffffffffffff,%edi
    7200754f:	75 87                	jne    720074d8 <cfg_basic_block+0x38>
    72007551:	48 8b 05 10 3d 21 00 	mov    0x213d10(%rip),%rax        # 7221b268 <_DYNAMIC+0x1e8>
    72007558:	48 8b 00             	mov    (%rax),%rax
    7200755b:	8b 78 70             	mov    0x70(%rax),%edi
    7200755e:	e9 75 ff ff ff       	jmpq   720074d8 <cfg_basic_block+0x38>
    72007563:	0f 1f 44 00 00       	nopl   0x0(%rax,%rax,1)
    72007568:	4c 89 e6             	mov    %r12,%rsi
    7200756b:	4c 89 ff             	mov    %r15,%rdi
    7200756e:	e8 e5 f2 ff ff       	callq  72006858 <table_bb_tag_lookup@plt>
    72007573:	48 85 c0             	test   %rax,%rax
    72007576:	49 89 c5             	mov    %rax,%r13
    72007579:	0f 84 3a 03 00 00    	je     720078b9 <cfg_basic_block+0x419>
    7200757f:	49 8b 75 18          	mov    0x18(%r13),%rsi
    72007583:	48 63 dd             	movslq %ebp,%rbx
    72007586:	48 85 f6             	test   %rsi,%rsi
    72007589:	74 0d                	je     72007598 <cfg_basic_block+0xf8>
    7200758b:	41 39 6d 14          	cmp    %ebp,0x14(%r13)
    7200758f:	48 63 dd             	movslq %ebp,%rbx
    72007592:	0f 84 f8 02 00 00    	je     72007890 <cfg_basic_block+0x3f0>
    72007598:	41 89 6d 14          	mov    %ebp,0x14(%r13)
    7200759c:	89 ee                	mov    %ebp,%esi
    7200759e:	4c 89 ff             	mov    %r15,%rdi
    720075a1:	e8 92 e5 ff ff       	callq  72005b38 <table_alloc_bytes@plt>
    720075a6:	48 89 da             	mov    %rbx,%rdx
    720075a9:	48 89 c7             	mov    %rax,%rdi
    720075ac:	49 89 45 18          	mov    %rax,0x18(%r13)
    720075b0:	4c 89 e6             	mov    %r12,%rsi
    720075b3:	e8 f0 e6 ff ff       	callq  72005ca8 <memcpy@plt>
    720075b8:	48 8b 4c 24 08       	mov    0x8(%rsp),%rcx
    720075bd:	4c 89 ea             	mov    %r13,%rdx
    720075c0:	4c 89 fe             	mov    %r15,%rsi
    720075c3:	4c 89 f7             	mov    %r14,%rdi
    720075c6:	e8 ad e4 ff ff       	callq  72005a78 <analyzer_basic_block@plt>
    720075cb:	49 89 c5             	mov    %rax,%r13
    720075ce:	8b 40 10             	mov    0x10(%rax),%eax
    720075d1:	a8 10                	test   $0x10,%al
    720075d3:	74 1b                	je     720075f0 <cfg_basic_block+0x150>
    720075d5:	48 83 c4 48          	add    $0x48,%rsp
    720075d9:	4c 89 e8             	mov    %r13,%rax
    720075dc:	5b                   	pop    %rbx
    720075dd:	5d                   	pop    %rbp
    720075de:	41 5c                	pop    %r12
    720075e0:	41 5d                	pop    %r13
    720075e2:	41 5e                	pop    %r14
    720075e4:	41 5f                	pop    %r15
    720075e6:	c3                   	retq   
    720075e7:	66 0f 1f 84 00 00 00 	nopw   0x0(%rax,%rax,1)
    720075ee:	00 00 
    720075f0:	48 8b 7c 24 08       	mov    0x8(%rsp),%rdi
    720075f5:	83 c8 10             	or     $0x10,%eax
    720075f8:	41 89 45 10          	mov    %eax,0x10(%r13)
    720075fc:	e8 d7 ec ff ff       	callq  720062d8 <instrlist_last@plt>
    72007601:	48 89 c7             	mov    %rax,%rdi
    72007604:	49 89 c4             	mov    %rax,%r12
    72007607:	e8 6c ea ff ff       	callq  72006078 <instr_is_mbr@plt>
    7200760c:	85 c0                	test   %eax,%eax
    7200760e:	0f 85 0c 02 00 00    	jne    72007820 <cfg_basic_block+0x380>
    72007614:	4c 89 e7             	mov    %r12,%rdi
    72007617:	e8 7c f2 ff ff       	callq  72006898 <instr_is_cti@plt>
    7200761c:	85 c0                	test   %eax,%eax
    7200761e:	66 90                	xchg   %ax,%ax
    72007620:	74 10                	je     72007632 <cfg_basic_block+0x192>
    72007622:	4c 89 e7             	mov    %r12,%rdi
    72007625:	e8 be e9 ff ff       	callq  72005fe8 <instr_is_call@plt>
    7200762a:	85 c0                	test   %eax,%eax
    7200762c:	0f 84 de 02 00 00    	je     72007910 <cfg_basic_block+0x470>
    72007632:	49 63 45 14          	movslq 0x14(%r13),%rax
    72007636:	49 8b 55 08          	mov    0x8(%r13),%rdx
    7200763a:	4c 89 fe             	mov    %r15,%rsi
    7200763d:	4c 89 f7             	mov    %r14,%rdi
    72007640:	48 01 d0             	add    %rdx,%rax
    72007643:	48 89 44 24 10       	mov    %rax,0x10(%rsp)
    72007648:	e8 ab e6 ff ff       	callq  72005cf8 <table_alloc_edge@plt>
    7200764d:	4c 89 e7             	mov    %r12,%rdi
    72007650:	48 c7 40 08 00 00 00 	movq   $0x0,0x8(%rax)
    72007657:	00 
    72007658:	c7 40 10 00 00 00 00 	movl   $0x0,0x10(%rax)
    7200765f:	c7 40 14 00 00 00 00 	movl   $0x0,0x14(%rax)
    72007666:	c7 40 18 00 00 00 00 	movl   $0x0,0x18(%rax)
    7200766d:	48 89 c3             	mov    %rax,%rbx
    72007670:	c7 40 1c 00 00 00 00 	movl   $0x0,0x1c(%rax)
    72007677:	c7 40 20 00 00 00 00 	movl   $0x0,0x20(%rax)
    7200767e:	c7 40 24 00 00 00 00 	movl   $0x0,0x24(%rax)
    72007685:	c7 40 28 00 00 00 00 	movl   $0x0,0x28(%rax)
    7200768c:	e8 57 e9 ff ff       	callq  72005fe8 <instr_is_call@plt>
    72007691:	83 f8 01             	cmp    $0x1,%eax
    72007694:	48 8b 74 24 10       	mov    0x10(%rsp),%rsi
    72007699:	4c 89 ff             	mov    %r15,%rdi
    7200769c:	19 c0                	sbb    %eax,%eax
    7200769e:	83 e8 01             	sub    $0x1,%eax
    720076a1:	89 43 1c             	mov    %eax,0x1c(%rbx)
    720076a4:	41 8b 45 00          	mov    0x0(%r13),%eax
    720076a8:	89 43 10             	mov    %eax,0x10(%rbx)
    720076ab:	41 8b 45 24          	mov    0x24(%r13),%eax
    720076af:	89 43 24             	mov    %eax,0x24(%rbx)
    720076b2:	8b 03                	mov    (%rbx),%eax
    720076b4:	41 89 45 24          	mov    %eax,0x24(%r13)
    720076b8:	e8 9b f1 ff ff       	callq  72006858 <table_bb_tag_lookup@plt>
    720076bd:	48 85 c0             	test   %rax,%rax
    720076c0:	48 89 c5             	mov    %rax,%rbp
    720076c3:	0f 84 83 02 00 00    	je     7200794c <cfg_basic_block+0x4ac>
    720076c9:	8b 45 00             	mov    0x0(%rbp),%eax
    720076cc:	48 8b 54 24 10       	mov    0x10(%rsp),%rdx
    720076d1:	89 43 14             	mov    %eax,0x14(%rbx)
    720076d4:	8b 45 20             	mov    0x20(%rbp),%eax
    720076d7:	48 89 53 08          	mov    %rdx,0x8(%rbx)
    720076db:	89 43 20             	mov    %eax,0x20(%rbx)
    720076de:	8b 03                	mov    (%rbx),%eax
    720076e0:	89 45 20             	mov    %eax,0x20(%rbp)
    720076e3:	f6 43 18 01          	testb  $0x1,0x18(%rbx)
    720076e7:	74 0a                	je     720076f3 <cfg_basic_block+0x253>
    720076e9:	f6 45 10 08          	testb  $0x8,0x10(%rbp)
    720076ed:	0f 84 32 02 00 00    	je     72007925 <cfg_basic_block+0x485>
    720076f3:	4c 89 e7             	mov    %r12,%rdi
    720076f6:	e8 9d f1 ff ff       	callq  72006898 <instr_is_cti@plt>
    720076fb:	85 c0                	test   %eax,%eax
    720076fd:	0f 84 d2 fe ff ff    	je     720075d5 <cfg_basic_block+0x135>
    72007703:	4c 89 e7             	mov    %r12,%rdi
    72007706:	e8 6d e9 ff ff       	callq  72006078 <instr_is_mbr@plt>
    7200770b:	85 c0                	test   %eax,%eax
    7200770d:	0f 85 c2 fe ff ff    	jne    720075d5 <cfg_basic_block+0x135>
    72007713:	4c 89 e7             	mov    %r12,%rdi
    72007716:	e8 bd e3 ff ff       	callq  72005ad8 <instr_get_target@plt>
    7200771b:	89 44 24 20          	mov    %eax,0x20(%rsp)
    7200771f:	48 8b 7c 24 20       	mov    0x20(%rsp),%rdi
    72007724:	48 89 d6             	mov    %rdx,%rsi
    72007727:	48 89 54 24 28       	mov    %rdx,0x28(%rsp)
    7200772c:	48 89 54 24 38       	mov    %rdx,0x38(%rsp)
    72007731:	48 89 7c 24 30       	mov    %rdi,0x30(%rsp)
    72007736:	e8 1d e9 ff ff       	callq  72006058 <opnd_get_pc@plt>
    7200773b:	4c 89 fe             	mov    %r15,%rsi
    7200773e:	4c 89 f7             	mov    %r14,%rdi
    72007741:	48 89 44 24 18       	mov    %rax,0x18(%rsp)
    72007746:	e8 ad e5 ff ff       	callq  72005cf8 <table_alloc_edge@plt>
    7200774b:	4c 89 e7             	mov    %r12,%rdi
    7200774e:	48 89 c5             	mov    %rax,%rbp
    72007751:	48 c7 40 08 00 00 00 	movq   $0x0,0x8(%rax)
    72007758:	00 
    72007759:	c7 40 10 00 00 00 00 	movl   $0x0,0x10(%rax)
    72007760:	c7 40 14 00 00 00 00 	movl   $0x0,0x14(%rax)
    72007767:	c7 40 18 00 00 00 00 	movl   $0x0,0x18(%rax)
    7200776e:	c7 40 1c 00 00 00 00 	movl   $0x0,0x1c(%rax)
    72007775:	c7 40 20 00 00 00 00 	movl   $0x0,0x20(%rax)
    7200777c:	c7 40 24 00 00 00 00 	movl   $0x0,0x24(%rax)
    72007783:	c7 40 28 00 00 00 00 	movl   $0x0,0x28(%rax)
    7200778a:	e8 a9 e4 ff ff       	callq  72005c38 <instr_get_opcode@plt>
    7200778f:	4c 89 e7             	mov    %r12,%rdi
    72007792:	89 45 1c             	mov    %eax,0x1c(%rbp)
    72007795:	e8 4e e8 ff ff       	callq  72005fe8 <instr_is_call@plt>
    7200779a:	85 c0                	test   %eax,%eax
    7200779c:	74 04                	je     720077a2 <cfg_basic_block+0x302>
    7200779e:	83 4d 18 01          	orl    $0x1,0x18(%rbp)
    720077a2:	41 8b 45 00          	mov    0x0(%r13),%eax
    720077a6:	48 8b 74 24 18       	mov    0x18(%rsp),%rsi
    720077ab:	4c 89 ff             	mov    %r15,%rdi
    720077ae:	89 45 10             	mov    %eax,0x10(%rbp)
    720077b1:	41 8b 45 24          	mov    0x24(%r13),%eax
    720077b5:	89 45 24             	mov    %eax,0x24(%rbp)
    720077b8:	8b 45 00             	mov    0x0(%rbp),%eax
    720077bb:	41 89 45 24          	mov    %eax,0x24(%r13)
    720077bf:	e8 94 f0 ff ff       	callq  72006858 <table_bb_tag_lookup@plt>
    720077c4:	48 85 c0             	test   %rax,%rax
    720077c7:	48 89 c3             	mov    %rax,%rbx
    720077ca:	0f 84 d8 01 00 00    	je     720079a8 <cfg_basic_block+0x508>
    720077d0:	8b 03                	mov    (%rbx),%eax
    720077d2:	48 8b 54 24 18       	mov    0x18(%rsp),%rdx
    720077d7:	89 45 14             	mov    %eax,0x14(%rbp)
    720077da:	8b 43 20             	mov    0x20(%rbx),%eax
    720077dd:	48 89 55 08          	mov    %rdx,0x8(%rbp)
    720077e1:	89 45 20             	mov    %eax,0x20(%rbp)
    720077e4:	8b 45 00             	mov    0x0(%rbp),%eax
    720077e7:	89 43 20             	mov    %eax,0x20(%rbx)
    720077ea:	f6 45 18 01          	testb  $0x1,0x18(%rbp)
    720077ee:	0f 84 e1 fd ff ff    	je     720075d5 <cfg_basic_block+0x135>
    720077f4:	f6 43 10 08          	testb  $0x8,0x10(%rbx)
    720077f8:	0f 85 d7 fd ff ff    	jne    720075d5 <cfg_basic_block+0x135>
    720077fe:	4c 89 fe             	mov    %r15,%rsi
    72007801:	4c 89 f7             	mov    %r14,%rdi
    72007804:	e8 2f e7 ff ff       	callq  72005f38 <table_alloc_func@plt>
    72007809:	8b 13                	mov    (%rbx),%edx
    7200780b:	89 50 04             	mov    %edx,0x4(%rax)
    7200780e:	48 8b 53 08          	mov    0x8(%rbx),%rdx
    72007812:	83 4b 10 08          	orl    $0x8,0x10(%rbx)
    72007816:	48 89 50 08          	mov    %rdx,0x8(%rax)
    7200781a:	e9 b6 fd ff ff       	jmpq   720075d5 <cfg_basic_block+0x135>
    7200781f:	90                   	nop
    72007820:	4c 89 fe             	mov    %r15,%rsi
    72007823:	4c 89 f7             	mov    %r14,%rdi
    72007826:	e8 cd e4 ff ff       	callq  72005cf8 <table_alloc_edge@plt>
    7200782b:	4c 89 e7             	mov    %r12,%rdi
    7200782e:	48 89 c3             	mov    %rax,%rbx
    72007831:	c7 40 10 00 00 00 00 	movl   $0x0,0x10(%rax)
    72007838:	c7 40 1c 00 00 00 00 	movl   $0x0,0x1c(%rax)
    7200783f:	c7 40 20 00 00 00 00 	movl   $0x0,0x20(%rax)
    72007846:	c7 40 24 00 00 00 00 	movl   $0x0,0x24(%rax)
    7200784d:	c7 40 28 00 00 00 00 	movl   $0x0,0x28(%rax)
    72007854:	c7 40 18 40 00 00 00 	movl   $0x40,0x18(%rax)
    7200785b:	c7 40 14 00 00 00 00 	movl   $0x0,0x14(%rax)
    72007862:	48 c7 40 08 00 00 00 	movq   $0x0,0x8(%rax)
    72007869:	00 
    7200786a:	e8 c9 e3 ff ff       	callq  72005c38 <instr_get_opcode@plt>
    7200786f:	89 43 1c             	mov    %eax,0x1c(%rbx)
    72007872:	41 8b 45 00          	mov    0x0(%r13),%eax
    72007876:	89 43 10             	mov    %eax,0x10(%rbx)
    72007879:	41 8b 45 24          	mov    0x24(%r13),%eax
    7200787d:	89 43 24             	mov    %eax,0x24(%rbx)
    72007880:	8b 03                	mov    (%rbx),%eax
    72007882:	41 89 45 24          	mov    %eax,0x24(%r13)
    72007886:	e9 4a fd ff ff       	jmpq   720075d5 <cfg_basic_block+0x135>
    7200788b:	0f 1f 44 00 00       	nopl   0x0(%rax,%rax,1)
    72007890:	48 39 db             	cmp    %rbx,%rbx
    72007893:	4c 89 e7             	mov    %r12,%rdi
    72007896:	48 89 d9             	mov    %rbx,%rcx
    72007899:	f3 a6                	repz cmpsb %es:(%rdi),%ds:(%rsi)
    7200789b:	0f 85 f7 fc ff ff    	jne    72007598 <cfg_basic_block+0xf8>
    720078a1:	48 8b 4c 24 08       	mov    0x8(%rsp),%rcx
    720078a6:	4c 89 ea             	mov    %r13,%rdx
    720078a9:	4c 89 fe             	mov    %r15,%rsi
    720078ac:	4c 89 f7             	mov    %r14,%rdi
    720078af:	e8 54 e9 ff ff       	callq  72006208 <analyzer_update_bb@plt>
    720078b4:	e9 1c fd ff ff       	jmpq   720075d5 <cfg_basic_block+0x135>
    720078b9:	4c 89 fe             	mov    %r15,%rsi
    720078bc:	4c 89 f7             	mov    %r14,%rdi
    720078bf:	e8 64 ec ff ff       	callq  72006528 <table_alloc_bb@plt>
    720078c4:	4c 89 fe             	mov    %r15,%rsi
    720078c7:	4c 89 60 08          	mov    %r12,0x8(%rax)
    720078cb:	c7 40 10 00 00 00 00 	movl   $0x0,0x10(%rax)
    720078d2:	c7 40 14 00 00 00 00 	movl   $0x0,0x14(%rax)
    720078d9:	c7 40 20 00 00 00 00 	movl   $0x0,0x20(%rax)
    720078e0:	48 89 c2             	mov    %rax,%rdx
    720078e3:	c7 40 24 00 00 00 00 	movl   $0x0,0x24(%rax)
    720078ea:	c7 40 28 00 00 00 00 	movl   $0x0,0x28(%rax)
    720078f1:	4c 89 f7             	mov    %r14,%rdi
    720078f4:	c7 40 38 00 00 00 00 	movl   $0x0,0x38(%rax)
    720078fb:	48 c7 40 30 00 00 00 	movq   $0x0,0x30(%rax)
    72007902:	00 
    72007903:	49 89 c5             	mov    %rax,%r13
    72007906:	e8 cd eb ff ff       	callq  720064d8 <table_bb_add_to_hashtable@plt>
    7200790b:	e9 6f fc ff ff       	jmpq   7200757f <cfg_basic_block+0xdf>
    72007910:	4c 89 e7             	mov    %r12,%rdi
    72007913:	e8 10 e7 ff ff       	callq  72006028 <instr_is_cbr@plt>
    72007918:	85 c0                	test   %eax,%eax
    7200791a:	0f 84 d3 fd ff ff    	je     720076f3 <cfg_basic_block+0x253>
    72007920:	e9 0d fd ff ff       	jmpq   72007632 <cfg_basic_block+0x192>
    72007925:	4c 89 fe             	mov    %r15,%rsi
    72007928:	4c 89 f7             	mov    %r14,%rdi
    7200792b:	0f 1f 44 00 00       	nopl   0x0(%rax,%rax,1)
    72007930:	e8 03 e6 ff ff       	callq  72005f38 <table_alloc_func@plt>
    72007935:	8b 55 00             	mov    0x0(%rbp),%edx
    72007938:	89 50 04             	mov    %edx,0x4(%rax)
    7200793b:	48 8b 55 08          	mov    0x8(%rbp),%rdx
    7200793f:	83 4d 10 08          	orl    $0x8,0x10(%rbp)
    72007943:	48 89 50 08          	mov    %rdx,0x8(%rax)
    72007947:	e9 a7 fd ff ff       	jmpq   720076f3 <cfg_basic_block+0x253>
    7200794c:	4c 89 fe             	mov    %r15,%rsi
    7200794f:	4c 89 f7             	mov    %r14,%rdi
    72007952:	e8 d1 eb ff ff       	callq  72006528 <table_alloc_bb@plt>
    72007957:	48 89 c5             	mov    %rax,%rbp
    7200795a:	48 8b 44 24 10       	mov    0x10(%rsp),%rax
    7200795f:	4c 89 fe             	mov    %r15,%rsi
    72007962:	c7 45 10 00 00 00 00 	movl   $0x0,0x10(%rbp)
    72007969:	c7 45 14 00 00 00 00 	movl   $0x0,0x14(%rbp)
    72007970:	48 89 ea             	mov    %rbp,%rdx
    72007973:	c7 45 20 00 00 00 00 	movl   $0x0,0x20(%rbp)
    7200797a:	c7 45 24 00 00 00 00 	movl   $0x0,0x24(%rbp)
    72007981:	4c 89 f7             	mov    %r14,%rdi
    72007984:	48 89 45 08          	mov    %rax,0x8(%rbp)
    72007988:	c7 45 28 00 00 00 00 	movl   $0x0,0x28(%rbp)
    7200798f:	c7 45 38 00 00 00 00 	movl   $0x0,0x38(%rbp)
    72007996:	48 c7 45 30 00 00 00 	movq   $0x0,0x30(%rbp)
    7200799d:	00 
    7200799e:	e8 35 eb ff ff       	callq  720064d8 <table_bb_add_to_hashtable@plt>
    720079a3:	e9 21 fd ff ff       	jmpq   720076c9 <cfg_basic_block+0x229>
    720079a8:	4c 89 fe             	mov    %r15,%rsi
    720079ab:	4c 89 f7             	mov    %r14,%rdi
    720079ae:	e8 75 eb ff ff       	callq  72006528 <table_alloc_bb@plt>
    720079b3:	48 89 c3             	mov    %rax,%rbx
    720079b6:	48 8b 44 24 18       	mov    0x18(%rsp),%rax
    720079bb:	4c 89 fe             	mov    %r15,%rsi
    720079be:	c7 43 10 00 00 00 00 	movl   $0x0,0x10(%rbx)
    720079c5:	c7 43 14 00 00 00 00 	movl   $0x0,0x14(%rbx)
    720079cc:	48 89 da             	mov    %rbx,%rdx
    720079cf:	c7 43 20 00 00 00 00 	movl   $0x0,0x20(%rbx)
    720079d6:	c7 43 24 00 00 00 00 	movl   $0x0,0x24(%rbx)
    720079dd:	4c 89 f7             	mov    %r14,%rdi
    720079e0:	48 89 43 08          	mov    %rax,0x8(%rbx)
    720079e4:	c7 43 28 00 00 00 00 	movl   $0x0,0x28(%rbx)
    720079eb:	c7 43 38 00 00 00 00 	movl   $0x0,0x38(%rbx)
    720079f2:	48 c7 43 30 00 00 00 	movq   $0x0,0x30(%rbx)
    720079f9:	00 
    720079fa:	e8 d9 ea ff ff       	callq  720064d8 <table_bb_add_to_hashtable@plt>
    720079ff:	e9 cc fd ff ff       	jmpq   720077d0 <cfg_basic_block+0x330>
    72007a04:	90                   	nop
    72007a05:	90                   	nop
    72007a06:	90                   	nop
    72007a07:	90                   	nop
    72007a08:	90                   	nop
    72007a09:	90                   	nop
    72007a0a:	90                   	nop
    72007a0b:	90                   	nop
    72007a0c:	90                   	nop
    72007a0d:	90                   	nop
    72007a0e:	90                   	nop
    72007a0f:	90                   	nop

0000000072007a10 <dr_init>:
    72007a10:	53                   	push   %rbx
    72007a11:	89 fb                	mov    %edi,%ebx
    72007a13:	48 8d 3d 76 05 00 00 	lea    0x576(%rip),%rdi        # 72007f90 <event_exit>
    72007a1a:	e8 19 eb ff ff       	callq  72006538 <dr_register_exit_event@plt>
    72007a1f:	48 8d 3d ea 04 00 00 	lea    0x4ea(%rip),%rdi        # 72007f10 <event_bb>
    72007a26:	e8 0d e9 ff ff       	callq  72006338 <dr_register_bb_event@plt>
    72007a2b:	48 8d 3d 6e 04 00 00 	lea    0x46e(%rip),%rdi        # 72007ea0 <event_trace>
    72007a32:	e8 51 ec ff ff       	callq  72006688 <dr_register_trace_event@plt>
    72007a37:	48 8d 3d 02 04 00 00 	lea    0x402(%rip),%rdi        # 72007e40 <event_end_trace>
    72007a3e:	e8 35 e7 ff ff       	callq  72006178 <dr_register_end_trace_event@plt>
    72007a43:	48 8d 3d a6 03 00 00 	lea    0x3a6(%rip),%rdi        # 72007df0 <event_delete>
    72007a4a:	e8 e9 ed ff ff       	callq  72006838 <dr_register_delete_event@plt>
    72007a4f:	48 8d 3d 1a 03 00 00 	lea    0x31a(%rip),%rdi        # 72007d70 <event_restore_state>
    72007a56:	e8 bd e2 ff ff       	callq  72005d18 <dr_register_restore_state_event@plt>
    72007a5b:	48 8d 3d de 02 00 00 	lea    0x2de(%rip),%rdi        # 72007d40 <event_thread_init>
    72007a62:	e8 31 e1 ff ff       	callq  72005b98 <dr_register_thread_init_event@plt>
    72007a67:	48 8d 3d a2 02 00 00 	lea    0x2a2(%rip),%rdi        # 72007d10 <event_thread_exit>
    72007a6e:	e8 b5 e6 ff ff       	callq  72006128 <dr_register_thread_exit_event@plt>
    72007a73:	48 8d 3d 66 02 00 00 	lea    0x266(%rip),%rdi        # 72007ce0 <event_fork_init>
    72007a7a:	e8 e9 ee ff ff       	callq  72006968 <dr_register_fork_init_event@plt>
    72007a7f:	48 8d 3d fa 01 00 00 	lea    0x1fa(%rip),%rdi        # 72007c80 <event_module_load>
    72007a86:	e8 4d ee ff ff       	callq  720068d8 <dr_register_module_load_event@plt>
    72007a8b:	48 8d 3d 9e 01 00 00 	lea    0x19e(%rip),%rdi        # 72007c30 <event_module_unload>
    72007a92:	e8 81 e9 ff ff       	callq  72006418 <dr_register_module_unload_event@plt>
    72007a97:	48 8d 3d 42 01 00 00 	lea    0x142(%rip),%rdi        # 72007be0 <event_filter_syscall>
    72007a9e:	e8 25 eb ff ff       	callq  720065c8 <dr_register_filter_syscall_event@plt>
    72007aa3:	48 8d 3d e6 00 00 00 	lea    0xe6(%rip),%rdi        # 72007b90 <event_pre_syscall>
    72007aaa:	e8 19 ec ff ff       	callq  720066c8 <dr_register_pre_syscall_event@plt>
    72007aaf:	48 8d 3d 8a 00 00 00 	lea    0x8a(%rip),%rdi        # 72007b40 <event_post_syscall>
    72007ab6:	e8 bd e8 ff ff       	callq  72006378 <dr_register_post_syscall_event@plt>
    72007abb:	48 8d 3d 2e 00 00 00 	lea    0x2e(%rip),%rdi        # 72007af0 <event_signal>
    72007ac2:	e8 b1 e2 ff ff       	callq  72005d78 <dr_register_signal_event@plt>
    72007ac7:	48 8d 0d 21 09 01 00 	lea    0x10921(%rip),%rcx        # 720183ef <main+0x55f>
    72007ace:	31 ff                	xor    %edi,%edi
    72007ad0:	ba 01 00 00 00       	mov    $0x1,%edx
    72007ad5:	be ff ff ff 00       	mov    $0xffffff,%esi
    72007ada:	31 c0                	xor    %eax,%eax
    72007adc:	e8 57 eb ff ff       	callq  72006638 <dr_log@plt>
    72007ae1:	89 df                	mov    %ebx,%edi
    72007ae3:	5b                   	pop    %rbx
    72007ae4:	e9 ff e2 ff ff       	jmpq   72005de8 <umbra_init@plt>
    72007ae9:	0f 1f 80 00 00 00 00 	nopl   0x0(%rax)

0000000072007af0 <event_signal>:
    72007af0:	48 89 5c 24 f0       	mov    %rbx,-0x10(%rsp)
    72007af5:	4c 89 64 24 f8       	mov    %r12,-0x8(%rsp)
    72007afa:	48 83 ec 18          	sub    $0x18,%rsp
    72007afe:	44 8b 06             	mov    (%rsi),%r8d
    72007b01:	48 8d 0d 04 09 01 00 	lea    0x10904(%rip),%rcx        # 7201840c <main+0x57c>
    72007b08:	49 89 fc             	mov    %rdi,%r12
    72007b0b:	48 89 f3             	mov    %rsi,%rbx
    72007b0e:	ba 02 00 00 00       	mov    $0x2,%edx
    72007b13:	be ff ff ff 00       	mov    $0xffffff,%esi
    72007b18:	31 c0                	xor    %eax,%eax
    72007b1a:	e8 19 eb ff ff       	callq  72006638 <dr_log@plt>
    72007b1f:	48 89 de             	mov    %rbx,%rsi
    72007b22:	4c 89 e7             	mov    %r12,%rdi
    72007b25:	48 8b 5c 24 08       	mov    0x8(%rsp),%rbx
    72007b2a:	4c 8b 64 24 10       	mov    0x10(%rsp),%r12
    72007b2f:	48 83 c4 18          	add    $0x18,%rsp
    72007b33:	e9 a0 eb ff ff       	jmpq   720066d8 <umbra_signal@plt>
    72007b38:	0f 1f 84 00 00 00 00 	nopl   0x0(%rax,%rax,1)
    72007b3f:	00 

0000000072007b40 <event_post_syscall>:
    72007b40:	48 8d 0d d0 08 01 00 	lea    0x108d0(%rip),%rcx        # 72018417 <main+0x587>
    72007b47:	48 89 5c 24 f0       	mov    %rbx,-0x10(%rsp)
    72007b4c:	4c 89 64 24 f8       	mov    %r12,-0x8(%rsp)
    72007b51:	89 f3                	mov    %esi,%ebx
    72007b53:	48 83 ec 18          	sub    $0x18,%rsp
    72007b57:	49 89 fc             	mov    %rdi,%r12
    72007b5a:	41 89 f0             	mov    %esi,%r8d
    72007b5d:	ba 02 00 00 00       	mov    $0x2,%edx
    72007b62:	be ff ff ff 00       	mov    $0xffffff,%esi
    72007b67:	31 c0                	xor    %eax,%eax
    72007b69:	e8 ca ea ff ff       	callq  72006638 <dr_log@plt>
    72007b6e:	89 de                	mov    %ebx,%esi
    72007b70:	4c 89 e7             	mov    %r12,%rdi
    72007b73:	48 8b 5c 24 08       	mov    0x8(%rsp),%rbx
    72007b78:	4c 8b 64 24 10       	mov    0x10(%rsp),%r12
    72007b7d:	48 83 c4 18          	add    $0x18,%rsp
    72007b81:	e9 32 e9 ff ff       	jmpq   720064b8 <umbra_post_syscall@plt>
    72007b86:	66 2e 0f 1f 84 00 00 	nopw   %cs:0x0(%rax,%rax,1)
    72007b8d:	00 00 00 

0000000072007b90 <event_pre_syscall>:
    72007b90:	48 8d 0d 9d 08 01 00 	lea    0x1089d(%rip),%rcx        # 72018434 <main+0x5a4>
    72007b97:	48 89 5c 24 f0       	mov    %rbx,-0x10(%rsp)
    72007b9c:	4c 89 64 24 f8       	mov    %r12,-0x8(%rsp)
    72007ba1:	89 f3                	mov    %esi,%ebx
    72007ba3:	48 83 ec 18          	sub    $0x18,%rsp
    72007ba7:	49 89 fc             	mov    %rdi,%r12
    72007baa:	41 89 f0             	mov    %esi,%r8d
    72007bad:	ba 02 00 00 00       	mov    $0x2,%edx
    72007bb2:	be ff ff ff 00       	mov    $0xffffff,%esi
    72007bb7:	31 c0                	xor    %eax,%eax
    72007bb9:	e8 7a ea ff ff       	callq  72006638 <dr_log@plt>
    72007bbe:	89 de                	mov    %ebx,%esi
    72007bc0:	4c 89 e7             	mov    %r12,%rdi
    72007bc3:	48 8b 5c 24 08       	mov    0x8(%rsp),%rbx
    72007bc8:	4c 8b 64 24 10       	mov    0x10(%rsp),%r12
    72007bcd:	48 83 c4 18          	add    $0x18,%rsp
    72007bd1:	e9 02 e2 ff ff       	jmpq   72005dd8 <umbra_pre_syscall@plt>
    72007bd6:	66 2e 0f 1f 84 00 00 	nopw   %cs:0x0(%rax,%rax,1)
    72007bdd:	00 00 00 

0000000072007be0 <event_filter_syscall>:
    72007be0:	48 8d 0d 71 09 01 00 	lea    0x10971(%rip),%rcx        # 72018558 <main+0x6c8>
    72007be7:	48 89 5c 24 f0       	mov    %rbx,-0x10(%rsp)
    72007bec:	4c 89 64 24 f8       	mov    %r12,-0x8(%rsp)
    72007bf1:	89 f3                	mov    %esi,%ebx
    72007bf3:	48 83 ec 18          	sub    $0x18,%rsp
    72007bf7:	49 89 fc             	mov    %rdi,%r12
    72007bfa:	41 89 f0             	mov    %esi,%r8d
    72007bfd:	ba 02 00 00 00       	mov    $0x2,%edx
    72007c02:	be ff ff ff 00       	mov    $0xffffff,%esi
    72007c07:	31 c0                	xor    %eax,%eax
    72007c09:	e8 2a ea ff ff       	callq  72006638 <dr_log@plt>
    72007c0e:	89 de                	mov    %ebx,%esi
    72007c10:	4c 89 e7             	mov    %r12,%rdi
    72007c13:	48 8b 5c 24 08       	mov    0x8(%rsp),%rbx
    72007c18:	4c 8b 64 24 10       	mov    0x10(%rsp),%r12
    72007c1d:	48 83 c4 18          	add    $0x18,%rsp
    72007c21:	e9 62 e4 ff ff       	jmpq   72006088 <umbra_filter_syscall@plt>
    72007c26:	66 2e 0f 1f 84 00 00 	nopw   %cs:0x0(%rax,%rax,1)
    72007c2d:	00 00 00 

0000000072007c30 <event_module_unload>:
    72007c30:	48 8d 0d 19 08 01 00 	lea    0x10819(%rip),%rcx        # 72018450 <main+0x5c0>
    72007c37:	48 89 5c 24 f0       	mov    %rbx,-0x10(%rsp)
    72007c3c:	4c 89 64 24 f8       	mov    %r12,-0x8(%rsp)
    72007c41:	48 89 f3             	mov    %rsi,%rbx
    72007c44:	48 83 ec 18          	sub    $0x18,%rsp
    72007c48:	49 89 fc             	mov    %rdi,%r12
    72007c4b:	49 89 f0             	mov    %rsi,%r8
    72007c4e:	ba 02 00 00 00       	mov    $0x2,%edx
    72007c53:	be ff ff ff 00       	mov    $0xffffff,%esi
    72007c58:	31 c0                	xor    %eax,%eax
    72007c5a:	e8 d9 e9 ff ff       	callq  72006638 <dr_log@plt>
    72007c5f:	48 89 de             	mov    %rbx,%rsi
    72007c62:	4c 89 e7             	mov    %r12,%rdi
    72007c65:	48 8b 5c 24 08       	mov    0x8(%rsp),%rbx
    72007c6a:	4c 8b 64 24 10       	mov    0x10(%rsp),%r12
    72007c6f:	48 83 c4 18          	add    $0x18,%rsp
    72007c73:	e9 f0 eb ff ff       	jmpq   72006868 <umbra_module_unload@plt>
    72007c78:	0f 1f 84 00 00 00 00 	nopl   0x0(%rax,%rax,1)
    72007c7f:	00 

0000000072007c80 <event_module_load>:
    72007c80:	48 8d 0d e2 07 01 00 	lea    0x107e2(%rip),%rcx        # 72018469 <main+0x5d9>
    72007c87:	48 89 5c 24 e8       	mov    %rbx,-0x18(%rsp)
    72007c8c:	4c 89 64 24 f0       	mov    %r12,-0x10(%rsp)
    72007c91:	4c 89 6c 24 f8       	mov    %r13,-0x8(%rsp)
    72007c96:	48 89 fb             	mov    %rdi,%rbx
    72007c99:	48 83 ec 18          	sub    $0x18,%rsp
    72007c9d:	49 89 f4             	mov    %rsi,%r12
    72007ca0:	41 89 d5             	mov    %edx,%r13d
    72007ca3:	49 89 f0             	mov    %rsi,%r8
    72007ca6:	ba 02 00 00 00       	mov    $0x2,%edx
    72007cab:	be ff ff ff 00       	mov    $0xffffff,%esi
    72007cb0:	31 c0                	xor    %eax,%eax
    72007cb2:	e8 81 e9 ff ff       	callq  72006638 <dr_log@plt>
    72007cb7:	44 89 ea             	mov    %r13d,%edx
    72007cba:	4c 89 e6             	mov    %r12,%rsi
    72007cbd:	48 89 df             	mov    %rbx,%rdi
    72007cc0:	4c 8b 64 24 08       	mov    0x8(%rsp),%r12
    72007cc5:	48 8b 1c 24          	mov    (%rsp),%rbx
    72007cc9:	4c 8b 6c 24 10       	mov    0x10(%rsp),%r13
    72007cce:	48 83 c4 18          	add    $0x18,%rsp
    72007cd2:	e9 c1 ec ff ff       	jmpq   72006998 <umbra_module_load@plt>
    72007cd7:	66 0f 1f 84 00 00 00 	nopw   0x0(%rax,%rax,1)
    72007cde:	00 00 

0000000072007ce0 <event_fork_init>:
    72007ce0:	53                   	push   %rbx
    72007ce1:	48 8d 0d 97 07 01 00 	lea    0x10797(%rip),%rcx        # 7201847f <main+0x5ef>
    72007ce8:	48 89 fb             	mov    %rdi,%rbx
    72007ceb:	ba 02 00 00 00       	mov    $0x2,%edx
    72007cf0:	31 ff                	xor    %edi,%edi
    72007cf2:	be ff ff ff 00       	mov    $0xffffff,%esi
    72007cf7:	31 c0                	xor    %eax,%eax
    72007cf9:	e8 3a e9 ff ff       	callq  72006638 <dr_log@plt>
    72007cfe:	48 89 df             	mov    %rbx,%rdi
    72007d01:	5b                   	pop    %rbx
    72007d02:	e9 91 e6 ff ff       	jmpq   72006398 <umbra_fork_init@plt>
    72007d07:	66 0f 1f 84 00 00 00 	nopw   0x0(%rax,%rax,1)
    72007d0e:	00 00 

0000000072007d10 <event_thread_exit>:
    72007d10:	53                   	push   %rbx
    72007d11:	48 8d 0d 81 07 01 00 	lea    0x10781(%rip),%rcx        # 72018499 <main+0x609>
    72007d18:	48 89 fb             	mov    %rdi,%rbx
    72007d1b:	ba 02 00 00 00       	mov    $0x2,%edx
    72007d20:	be ff ff ff 00       	mov    $0xffffff,%esi
    72007d25:	31 c0                	xor    %eax,%eax
    72007d27:	e8 0c e9 ff ff       	callq  72006638 <dr_log@plt>
    72007d2c:	48 89 df             	mov    %rbx,%rdi
    72007d2f:	5b                   	pop    %rbx
    72007d30:	e9 d3 de ff ff       	jmpq   72005c08 <umbra_thread_exit@plt>
    72007d35:	66 66 2e 0f 1f 84 00 	nopw   %cs:0x0(%rax,%rax,1)
    72007d3c:	00 00 00 00 

0000000072007d40 <event_thread_init>:
    72007d40:	53                   	push   %rbx
    72007d41:	48 8d 0d 6d 07 01 00 	lea    0x1076d(%rip),%rcx        # 720184b5 <main+0x625>
    72007d48:	48 89 fb             	mov    %rdi,%rbx
    72007d4b:	ba 01 00 00 00       	mov    $0x1,%edx
    72007d50:	be ff ff ff 00       	mov    $0xffffff,%esi
    72007d55:	31 c0                	xor    %eax,%eax
    72007d57:	e8 dc e8 ff ff       	callq  72006638 <dr_log@plt>
    72007d5c:	48 89 df             	mov    %rbx,%rdi
    72007d5f:	5b                   	pop    %rbx
    72007d60:	e9 93 e5 ff ff       	jmpq   720062f8 <umbra_thread_init@plt>
    72007d65:	66 66 2e 0f 1f 84 00 	nopw   %cs:0x0(%rax,%rax,1)
    72007d6c:	00 00 00 00 

0000000072007d70 <event_restore_state>:
    72007d70:	4c 89 6c 24 e8       	mov    %r13,-0x18(%rsp)
    72007d75:	41 89 cd             	mov    %ecx,%r13d
    72007d78:	48 8d 0d 52 07 01 00 	lea    0x10752(%rip),%rcx        # 720184d1 <main+0x641>
    72007d7f:	48 89 5c 24 d8       	mov    %rbx,-0x28(%rsp)
    72007d84:	4c 89 64 24 e0       	mov    %r12,-0x20(%rsp)
    72007d89:	44 89 c3             	mov    %r8d,%ebx
    72007d8c:	4c 89 74 24 f0       	mov    %r14,-0x10(%rsp)
    72007d91:	4c 89 7c 24 f8       	mov    %r15,-0x8(%rsp)
    72007d96:	49 89 fe             	mov    %rdi,%r14
    72007d99:	48 83 ec 28          	sub    $0x28,%rsp
    72007d9d:	49 89 f4             	mov    %rsi,%r12
    72007da0:	49 89 d7             	mov    %rdx,%r15
    72007da3:	49 89 f0             	mov    %rsi,%r8
    72007da6:	ba 02 00 00 00       	mov    $0x2,%edx
    72007dab:	be ff ff ff 00       	mov    $0xffffff,%esi
    72007db0:	31 c0                	xor    %eax,%eax
    72007db2:	e8 81 e8 ff ff       	callq  72006638 <dr_log@plt>
    72007db7:	41 89 d8             	mov    %ebx,%r8d
    72007dba:	44 89 e9             	mov    %r13d,%ecx
    72007dbd:	4c 89 fa             	mov    %r15,%rdx
    72007dc0:	4c 89 e6             	mov    %r12,%rsi
    72007dc3:	4c 89 f7             	mov    %r14,%rdi
    72007dc6:	48 8b 1c 24          	mov    (%rsp),%rbx
    72007dca:	4c 8b 64 24 08       	mov    0x8(%rsp),%r12
    72007dcf:	4c 8b 6c 24 10       	mov    0x10(%rsp),%r13
    72007dd4:	4c 8b 74 24 18       	mov    0x18(%rsp),%r14
    72007dd9:	4c 8b 7c 24 20       	mov    0x20(%rsp),%r15
    72007dde:	48 83 c4 28          	add    $0x28,%rsp
    72007de2:	e9 71 e8 ff ff       	jmpq   72006658 <umbra_restore_state@plt>
    72007de7:	66 0f 1f 84 00 00 00 	nopw   0x0(%rax,%rax,1)
    72007dee:	00 00 

0000000072007df0 <event_delete>:
    72007df0:	48 8d 0d f2 06 01 00 	lea    0x106f2(%rip),%rcx        # 720184e9 <main+0x659>
    72007df7:	48 89 5c 24 f0       	mov    %rbx,-0x10(%rsp)
    72007dfc:	4c 89 64 24 f8       	mov    %r12,-0x8(%rsp)
    72007e01:	48 89 f3             	mov    %rsi,%rbx
    72007e04:	48 83 ec 18          	sub    $0x18,%rsp
    72007e08:	49 89 fc             	mov    %rdi,%r12
    72007e0b:	49 89 f0             	mov    %rsi,%r8
    72007e0e:	ba 02 00 00 00       	mov    $0x2,%edx
    72007e13:	be ff ff ff 00       	mov    $0xffffff,%esi
    72007e18:	31 c0                	xor    %eax,%eax
    72007e1a:	e8 19 e8 ff ff       	callq  72006638 <dr_log@plt>
    72007e1f:	48 89 de             	mov    %rbx,%rsi
    72007e22:	4c 89 e7             	mov    %r12,%rdi
    72007e25:	48 8b 5c 24 08       	mov    0x8(%rsp),%rbx
    72007e2a:	4c 8b 64 24 10       	mov    0x10(%rsp),%r12
    72007e2f:	48 83 c4 18          	add    $0x18,%rsp
    72007e33:	e9 e0 e2 ff ff       	jmpq   72006118 <umbra_delete@plt>
    72007e38:	0f 1f 84 00 00 00 00 	nopl   0x0(%rax,%rax,1)
    72007e3f:	00 

0000000072007e40 <event_end_trace>:
    72007e40:	48 8d 0d b3 06 01 00 	lea    0x106b3(%rip),%rcx        # 720184fa <main+0x66a>
    72007e47:	48 89 5c 24 e8       	mov    %rbx,-0x18(%rsp)
    72007e4c:	4c 89 64 24 f0       	mov    %r12,-0x10(%rsp)
    72007e51:	4c 89 6c 24 f8       	mov    %r13,-0x8(%rsp)
    72007e56:	49 89 f4             	mov    %rsi,%r12
    72007e59:	48 83 ec 18          	sub    $0x18,%rsp
    72007e5d:	49 89 fd             	mov    %rdi,%r13
    72007e60:	48 89 d3             	mov    %rdx,%rbx
    72007e63:	49 89 d1             	mov    %rdx,%r9
    72007e66:	49 89 f0             	mov    %rsi,%r8
    72007e69:	ba 02 00 00 00       	mov    $0x2,%edx
    72007e6e:	be ff ff ff 00       	mov    $0xffffff,%esi
    72007e73:	31 c0                	xor    %eax,%eax
    72007e75:	e8 be e7 ff ff       	callq  72006638 <dr_log@plt>
    72007e7a:	48 89 da             	mov    %rbx,%rdx
    72007e7d:	4c 89 e6             	mov    %r12,%rsi
    72007e80:	4c 89 ef             	mov    %r13,%rdi
    72007e83:	48 8b 1c 24          	mov    (%rsp),%rbx
    72007e87:	4c 8b 64 24 08       	mov    0x8(%rsp),%r12
    72007e8c:	4c 8b 6c 24 10       	mov    0x10(%rsp),%r13
    72007e91:	48 83 c4 18          	add    $0x18,%rsp
    72007e95:	e9 3e e5 ff ff       	jmpq   720063d8 <umbra_end_trace@plt>
    72007e9a:	66 0f 1f 44 00 00    	nopw   0x0(%rax,%rax,1)

0000000072007ea0 <event_trace>:
    72007ea0:	48 89 5c 24 e0       	mov    %rbx,-0x20(%rsp)
    72007ea5:	41 89 c9             	mov    %ecx,%r9d
    72007ea8:	89 cb                	mov    %ecx,%ebx
    72007eaa:	48 8d 0d 67 06 01 00 	lea    0x10667(%rip),%rcx        # 72018518 <main+0x688>
    72007eb1:	4c 89 64 24 e8       	mov    %r12,-0x18(%rsp)
    72007eb6:	4c 89 6c 24 f0       	mov    %r13,-0x10(%rsp)
    72007ebb:	4c 89 74 24 f8       	mov    %r14,-0x8(%rsp)
    72007ec0:	49 89 fd             	mov    %rdi,%r13
    72007ec3:	48 83 ec 28          	sub    $0x28,%rsp
    72007ec7:	49 89 f4             	mov    %rsi,%r12
    72007eca:	49 89 d6             	mov    %rdx,%r14
    72007ecd:	49 89 f0             	mov    %rsi,%r8
    72007ed0:	ba 02 00 00 00       	mov    $0x2,%edx
    72007ed5:	be ff ff ff 00       	mov    $0xffffff,%esi
    72007eda:	31 c0                	xor    %eax,%eax
    72007edc:	e8 57 e7 ff ff       	callq  72006638 <dr_log@plt>
    72007ee1:	89 d9                	mov    %ebx,%ecx
    72007ee3:	4c 89 f2             	mov    %r14,%rdx
    72007ee6:	4c 89 e6             	mov    %r12,%rsi
    72007ee9:	4c 89 ef             	mov    %r13,%rdi
    72007eec:	48 8b 5c 24 08       	mov    0x8(%rsp),%rbx
    72007ef1:	4c 8b 64 24 10       	mov    0x10(%rsp),%r12
    72007ef6:	4c 8b 6c 24 18       	mov    0x18(%rsp),%r13
    72007efb:	4c 8b 74 24 20       	mov    0x20(%rsp),%r14
    72007f00:	48 83 c4 28          	add    $0x28,%rsp
    72007f04:	e9 ff e8 ff ff       	jmpq   72006808 <umbra_trace@plt>
    72007f09:	0f 1f 80 00 00 00 00 	nopl   0x0(%rax)

0000000072007f10 <event_bb>:
    72007f10:	48 89 5c 24 d8       	mov    %rbx,-0x28(%rsp)
    72007f15:	4c 89 64 24 e0       	mov    %r12,-0x20(%rsp)
    72007f1a:	41 89 c9             	mov    %ecx,%r9d
    72007f1d:	4c 89 6c 24 e8       	mov    %r13,-0x18(%rsp)
    72007f22:	4c 89 74 24 f0       	mov    %r14,-0x10(%rsp)
    72007f27:	41 89 cc             	mov    %ecx,%r12d
    72007f2a:	4c 89 7c 24 f8       	mov    %r15,-0x8(%rsp)
    72007f2f:	48 8d 0d f6 05 01 00 	lea    0x105f6(%rip),%rcx        # 7201852c <main+0x69c>
    72007f36:	48 83 ec 38          	sub    $0x38,%rsp
    72007f3a:	49 89 fe             	mov    %rdi,%r14
    72007f3d:	49 89 f5             	mov    %rsi,%r13
    72007f40:	49 89 d7             	mov    %rdx,%r15
    72007f43:	44 89 c3             	mov    %r8d,%ebx
    72007f46:	44 89 04 24          	mov    %r8d,(%rsp)
    72007f4a:	ba 02 00 00 00       	mov    $0x2,%edx
    72007f4f:	49 89 f0             	mov    %rsi,%r8
    72007f52:	31 c0                	xor    %eax,%eax
    72007f54:	be ff ff ff 00       	mov    $0xffffff,%esi
    72007f59:	e8 da e6 ff ff       	callq  72006638 <dr_log@plt>
    72007f5e:	41 89 d8             	mov    %ebx,%r8d
    72007f61:	44 89 e1             	mov    %r12d,%ecx
    72007f64:	4c 89 fa             	mov    %r15,%rdx
    72007f67:	4c 89 ee             	mov    %r13,%rsi
    72007f6a:	4c 89 f7             	mov    %r14,%rdi
    72007f6d:	48 8b 5c 24 10       	mov    0x10(%rsp),%rbx
    72007f72:	4c 8b 64 24 18       	mov    0x18(%rsp),%r12
    72007f77:	4c 8b 6c 24 20       	mov    0x20(%rsp),%r13
    72007f7c:	4c 8b 74 24 28       	mov    0x28(%rsp),%r14
    72007f81:	4c 8b 7c 24 30       	mov    0x30(%rsp),%r15
    72007f86:	48 83 c4 38          	add    $0x38,%rsp
    72007f8a:	e9 49 dc ff ff       	jmpq   72005bd8 <umbra_basic_block@plt>
    72007f8f:	90                   	nop

0000000072007f90 <event_exit>:
    72007f90:	48 8d 0d a9 05 01 00 	lea    0x105a9(%rip),%rcx        # 72018540 <main+0x6b0>
    72007f97:	48 83 ec 08          	sub    $0x8,%rsp
    72007f9b:	ba 01 00 00 00       	mov    $0x1,%edx
    72007fa0:	be ff ff ff 00       	mov    $0xffffff,%esi
    72007fa5:	31 ff                	xor    %edi,%edi
    72007fa7:	31 c0                	xor    %eax,%eax
    72007fa9:	e8 8a e6 ff ff       	callq  72006638 <dr_log@plt>
    72007fae:	48 83 c4 08          	add    $0x8,%rsp
    72007fb2:	e9 71 da ff ff       	jmpq   72005a28 <umbra_exit@plt>
    72007fb7:	90                   	nop
    72007fb8:	90                   	nop
    72007fb9:	90                   	nop
    72007fba:	90                   	nop
    72007fbb:	90                   	nop
    72007fbc:	90                   	nop
    72007fbd:	90                   	nop
    72007fbe:	90                   	nop
    72007fbf:	90                   	nop

0000000072007fc0 <my_post_func_dummy>:
    72007fc0:	f3 c3                	repz retq 
    72007fc2:	66 66 66 66 66 2e 0f 	nopw   %cs:0x0(%rax,%rax,1)
    72007fc9:	1f 84 00 00 00 00 00 

0000000072007fd0 <preinsert_count_inc>:
    72007fd0:	48 89 5c 24 e0       	mov    %rbx,-0x20(%rsp)
    72007fd5:	48 89 6c 24 e8       	mov    %rbp,-0x18(%rsp)
    72007fda:	48 89 fd             	mov    %rdi,%rbp
    72007fdd:	4c 89 64 24 f0       	mov    %r12,-0x10(%rsp)
    72007fe2:	4c 89 6c 24 f8       	mov    %r13,-0x8(%rsp)
    72007fe7:	48 89 cf             	mov    %rcx,%rdi
    72007fea:	48 83 ec 68          	sub    $0x68,%rsp
    72007fee:	49 89 f5             	mov    %rsi,%r13
    72007ff1:	be 92 00 00 00       	mov    $0x92,%esi
    72007ff6:	44 89 c3             	mov    %r8d,%ebx
    72007ff9:	49 89 d4             	mov    %rdx,%r12
    72007ffc:	e8 47 de ff ff       	callq  72005e48 <opnd_create_rel_addr@plt>
    72008001:	89 44 24 10          	mov    %eax,0x10(%rsp)
    72008005:	48 8b 44 24 10       	mov    0x10(%rsp),%rax
    7200800a:	83 fb 7f             	cmp    $0x7f,%ebx
    7200800d:	48 89 54 24 18       	mov    %rdx,0x18(%rsp)
    72008012:	48 89 54 24 38       	mov    %rdx,0x38(%rsp)
    72008017:	48 63 fb             	movslq %ebx,%rdi
    7200801a:	be 8e 00 00 00       	mov    $0x8e,%esi
    7200801f:	48 89 44 24 30       	mov    %rax,0x30(%rsp)
    72008024:	7e 08                	jle    7200802e <preinsert_count_inc+0x5e>
    72008026:	48 63 fb             	movslq %ebx,%rdi
    72008029:	be 90 00 00 00       	mov    $0x90,%esi
    7200802e:	e8 95 dd ff ff       	callq  72005dc8 <opnd_create_immed_int@plt>
    72008033:	89 44 24 10          	mov    %eax,0x10(%rsp)
    72008037:	48 8b 44 24 10       	mov    0x10(%rsp),%rax
    7200803c:	49 89 d1             	mov    %rdx,%r9
    7200803f:	48 89 54 24 18       	mov    %rdx,0x18(%rsp)
    72008044:	48 89 54 24 28       	mov    %rdx,0x28(%rsp)
    72008049:	48 89 ef             	mov    %rbp,%rdi
    7200804c:	8b 54 24 30          	mov    0x30(%rsp),%edx
    72008050:	48 8b 4c 24 38       	mov    0x38(%rsp),%rcx
    72008055:	be 04 00 00 00       	mov    $0x4,%esi
    7200805a:	48 89 44 24 20       	mov    %rax,0x20(%rsp)
    7200805f:	48 8b 44 24 30       	mov    0x30(%rsp),%rax
    72008064:	44 8b 44 24 20       	mov    0x20(%rsp),%r8d
    72008069:	48 89 4c 24 08       	mov    %rcx,0x8(%rsp)
    7200806e:	48 89 04 24          	mov    %rax,(%rsp)
    72008072:	e8 71 e3 ff ff       	callq  720063e8 <instr_create_1dst_2src@plt>
    72008077:	4c 89 e6             	mov    %r12,%rsi
    7200807a:	4c 89 ef             	mov    %r13,%rdi
    7200807d:	48 8b 5c 24 48       	mov    0x48(%rsp),%rbx
    72008082:	48 8b 6c 24 50       	mov    0x50(%rsp),%rbp
    72008087:	4c 8b 64 24 58       	mov    0x58(%rsp),%r12
    7200808c:	48 89 c2             	mov    %rax,%rdx
    7200808f:	4c 8b 6c 24 60       	mov    0x60(%rsp),%r13
    72008094:	48 83 c4 68          	add    $0x68,%rsp
    72008098:	e9 2b e2 ff ff       	jmpq   720062c8 <instrlist_meta_preinsert@plt>
    7200809d:	0f 1f 00             	nopl   (%rax)

00000000720080a0 <preinsert_calculate_app_addr>:
    720080a0:	48 89 6c 24 e0       	mov    %rbp,-0x20(%rsp)
    720080a5:	4c 89 64 24 e8       	mov    %r12,-0x18(%rsp)
    720080aa:	49 89 fc             	mov    %rdi,%r12
    720080ad:	4c 89 6c 24 f0       	mov    %r13,-0x10(%rsp)
    720080b2:	4c 89 74 24 f8       	mov    %r14,-0x8(%rsp)
    720080b7:	0f b6 fa             	movzbl %dl,%edi
    720080ba:	48 89 5c 24 d8       	mov    %rbx,-0x28(%rsp)
    720080bf:	48 83 ec 58          	sub    $0x58,%rsp
    720080c3:	48 89 f5             	mov    %rsi,%rbp
    720080c6:	49 89 ce             	mov    %rcx,%r14
    720080c9:	4d 89 c5             	mov    %r8,%r13
    720080cc:	e8 57 e5 ff ff       	callq  72006628 <opnd_create_reg@plt>
    720080d1:	89 04 24             	mov    %eax,(%rsp)
    720080d4:	48 8b 04 24          	mov    (%rsp),%rax
    720080d8:	48 89 54 24 08       	mov    %rdx,0x8(%rsp)
    720080dd:	48 89 54 24 28       	mov    %rdx,0x28(%rsp)
    720080e2:	48 89 44 24 20       	mov    %rax,0x20(%rsp)
    720080e7:	48 8b 45 00          	mov    0x0(%rbp),%rax
    720080eb:	8b 78 20             	mov    0x20(%rax),%edi
    720080ee:	48 8b 70 28          	mov    0x28(%rax),%rsi
    720080f2:	e8 b1 e4 ff ff       	callq  720065a8 <opnd_is_rel_addr@plt>
    720080f7:	85 c0                	test   %eax,%eax
    720080f9:	74 25                	je     72008120 <preinsert_calculate_app_addr+0x80>
    720080fb:	48 8b 5c 24 30       	mov    0x30(%rsp),%rbx
    72008100:	48 8b 6c 24 38       	mov    0x38(%rsp),%rbp
    72008105:	4c 8b 64 24 40       	mov    0x40(%rsp),%r12
    7200810a:	4c 8b 6c 24 48       	mov    0x48(%rsp),%r13
    7200810f:	4c 8b 74 24 50       	mov    0x50(%rsp),%r14
    72008114:	48 83 c4 58          	add    $0x58,%rsp
    72008118:	c3                   	retq   
    72008119:	0f 1f 80 00 00 00 00 	nopl   0x0(%rax)
    72008120:	48 8b 45 00          	mov    0x0(%rbp),%rax
    72008124:	8b 78 20             	mov    0x20(%rax),%edi
    72008127:	48 8b 70 28          	mov    0x28(%rax),%rsi
    7200812b:	e8 f8 e2 ff ff       	callq  72006428 <opnd_is_abs_addr@plt>
    72008130:	85 c0                	test   %eax,%eax
    72008132:	75 c7                	jne    720080fb <preinsert_calculate_app_addr+0x5b>
    72008134:	48 8b 05 ed 30 21 00 	mov    0x2130ed(%rip),%rax        # 7221b228 <_DYNAMIC+0x1a8>
    7200813b:	31 d2                	xor    %edx,%edx
    7200813d:	83 b8 28 01 00 00 01 	cmpl   $0x1,0x128(%rax)
    72008144:	0f 84 8e 00 00 00    	je     720081d8 <preinsert_calculate_app_addr+0x138>
    7200814a:	48 8b 45 00          	mov    0x0(%rbp),%rax
    7200814e:	89 d3                	mov    %edx,%ebx
    72008150:	03 5d 0c             	add    0xc(%rbp),%ebx
    72008153:	8b 78 20             	mov    0x20(%rax),%edi
    72008156:	48 8b 70 28          	mov    0x28(%rax),%rsi
    7200815a:	e8 e9 d8 ff ff       	callq  72005a48 <opnd_get_scale@plt>
    7200815f:	0f b6 75 09          	movzbl 0x9(%rbp),%esi
    72008163:	0f b6 7d 08          	movzbl 0x8(%rbp),%edi
    72008167:	89 c2                	mov    %eax,%edx
    72008169:	89 d9                	mov    %ebx,%ecx
    7200816b:	41 b8 8d 00 00 00    	mov    $0x8d,%r8d
    72008171:	e8 92 de ff ff       	callq  72006008 <opnd_create_base_disp@plt>
    72008176:	48 8b 4c 24 28       	mov    0x28(%rsp),%rcx
    7200817b:	48 89 d6             	mov    %rdx,%rsi
    7200817e:	89 04 24             	mov    %eax,(%rsp)
    72008181:	48 89 54 24 08       	mov    %rdx,0x8(%rsp)
    72008186:	4c 8b 04 24          	mov    (%rsp),%r8
    7200818a:	4c 89 e7             	mov    %r12,%rdi
    7200818d:	48 89 54 24 18       	mov    %rdx,0x18(%rsp)
    72008192:	8b 54 24 20          	mov    0x20(%rsp),%edx
    72008196:	49 89 f1             	mov    %rsi,%r9
    72008199:	be 3d 00 00 00       	mov    $0x3d,%esi
    7200819e:	4c 89 44 24 10       	mov    %r8,0x10(%rsp)
    720081a3:	e8 b0 e7 ff ff       	callq  72006958 <instr_create_1dst_1src@plt>
    720081a8:	4c 89 ee             	mov    %r13,%rsi
    720081ab:	4c 89 f7             	mov    %r14,%rdi
    720081ae:	48 8b 5c 24 30       	mov    0x30(%rsp),%rbx
    720081b3:	48 8b 6c 24 38       	mov    0x38(%rsp),%rbp
    720081b8:	4c 8b 64 24 40       	mov    0x40(%rsp),%r12
    720081bd:	48 89 c2             	mov    %rax,%rdx
    720081c0:	4c 8b 6c 24 48       	mov    0x48(%rsp),%r13
    720081c5:	4c 8b 74 24 50       	mov    0x50(%rsp),%r14
    720081ca:	48 83 c4 58          	add    $0x58,%rsp
    720081ce:	e9 f5 e0 ff ff       	jmpq   720062c8 <instrlist_meta_preinsert@plt>
    720081d3:	0f 1f 44 00 00       	nopl   0x0(%rax,%rax,1)
    720081d8:	8b 55 14             	mov    0x14(%rbp),%edx
    720081db:	e9 6a ff ff ff       	jmpq   7200814a <preinsert_calculate_app_addr+0xaa>

00000000720081e0 <append_compare_map_tag>:
    720081e0:	48 89 5c 24 e0       	mov    %rbx,-0x20(%rsp)
    720081e5:	4c 89 64 24 e8       	mov    %r12,-0x18(%rsp)
    720081ea:	49 89 fc             	mov    %rdi,%r12
    720081ed:	4c 89 6c 24 f0       	mov    %r13,-0x10(%rsp)
    720081f2:	0f b6 fa             	movzbl %dl,%edi
    720081f5:	4c 89 74 24 f8       	mov    %r14,-0x8(%rsp)
    720081fa:	48 83 ec 58          	sub    $0x58,%rsp
    720081fe:	49 89 f6             	mov    %rsi,%r14
    72008201:	48 89 cb             	mov    %rcx,%rbx
    72008204:	4d 89 c5             	mov    %r8,%r13
    72008207:	e8 1c e4 ff ff       	callq  72006628 <opnd_create_reg@plt>
    7200820c:	89 04 24             	mov    %eax,(%rsp)
    7200820f:	48 8b 04 24          	mov    (%rsp),%rax
    72008213:	48 89 df             	mov    %rbx,%rdi
    72008216:	be 92 00 00 00       	mov    $0x92,%esi
    7200821b:	48 89 54 24 08       	mov    %rdx,0x8(%rsp)
    72008220:	48 89 54 24 28       	mov    %rdx,0x28(%rsp)
    72008225:	48 89 44 24 20       	mov    %rax,0x20(%rsp)
    7200822a:	e8 19 dc ff ff       	callq  72005e48 <opnd_create_rel_addr@plt>
    7200822f:	48 8b 4c 24 28       	mov    0x28(%rsp),%rcx
    72008234:	48 89 d6             	mov    %rdx,%rsi
    72008237:	89 04 24             	mov    %eax,(%rsp)
    7200823a:	48 89 54 24 08       	mov    %rdx,0x8(%rsp)
    7200823f:	4c 8b 04 24          	mov    (%rsp),%r8
    72008243:	49 89 f1             	mov    %rsi,%r9
    72008246:	48 89 54 24 18       	mov    %rdx,0x18(%rsp)
    7200824b:	8b 54 24 20          	mov    0x20(%rsp),%edx
    7200824f:	4c 89 e7             	mov    %r12,%rdi
    72008252:	be 0e 00 00 00       	mov    $0xe,%esi
    72008257:	4c 89 44 24 10       	mov    %r8,0x10(%rsp)
    7200825c:	e8 57 dc ff ff       	callq  72005eb8 <instr_create_0dst_2src@plt>
    72008261:	31 f6                	xor    %esi,%esi
    72008263:	48 89 c2             	mov    %rax,%rdx
    72008266:	4c 89 f7             	mov    %r14,%rdi
    72008269:	e8 5a e0 ff ff       	callq  720062c8 <instrlist_meta_preinsert@plt>
    7200826e:	4c 89 ef             	mov    %r13,%rdi
    72008271:	e8 72 e3 ff ff       	callq  720065e8 <opnd_create_instr@plt>
    72008276:	48 89 d1             	mov    %rdx,%rcx
    72008279:	89 04 24             	mov    %eax,(%rsp)
    7200827c:	48 89 54 24 08       	mov    %rdx,0x8(%rsp)
    72008281:	48 8b 14 24          	mov    (%rsp),%rdx
    72008285:	4c 89 e7             	mov    %r12,%rdi
    72008288:	be 9d 00 00 00       	mov    $0x9d,%esi
    7200828d:	48 89 4c 24 28       	mov    %rcx,0x28(%rsp)
    72008292:	48 89 54 24 20       	mov    %rdx,0x20(%rsp)
    72008297:	e8 cc e2 ff ff       	callq  72006568 <instr_create_0dst_1src@plt>
    7200829c:	4c 89 f7             	mov    %r14,%rdi
    7200829f:	48 8b 5c 24 38       	mov    0x38(%rsp),%rbx
    720082a4:	4c 8b 64 24 40       	mov    0x40(%rsp),%r12
    720082a9:	4c 8b 6c 24 48       	mov    0x48(%rsp),%r13
    720082ae:	4c 8b 74 24 50       	mov    0x50(%rsp),%r14
    720082b3:	48 89 c2             	mov    %rax,%rdx
    720082b6:	31 f6                	xor    %esi,%esi
    720082b8:	48 83 c4 58          	add    $0x58,%rsp
    720082bc:	e9 07 e0 ff ff       	jmpq   720062c8 <instrlist_meta_preinsert@plt>
    720082c1:	66 66 66 66 66 66 2e 	nopw   %cs:0x0(%rax,%rax,1)
    720082c8:	0f 1f 84 00 00 00 00 
    720082cf:	00 

00000000720082d0 <instrument_umbra_code>:
    720082d0:	41 57                	push   %r15
    720082d2:	49 89 ff             	mov    %rdi,%r15
    720082d5:	41 56                	push   %r14
    720082d7:	41 55                	push   %r13
    720082d9:	41 54                	push   %r12
    720082db:	49 89 f4             	mov    %rsi,%r12
    720082de:	be 03 00 00 00       	mov    $0x3,%esi
    720082e3:	55                   	push   %rbp
    720082e4:	48 89 d5             	mov    %rdx,%rbp
    720082e7:	53                   	push   %rbx
    720082e8:	48 81 ec 78 01 00 00 	sub    $0x178,%rsp
    720082ef:	48 89 4c 24 48       	mov    %rcx,0x48(%rsp)
    720082f4:	4c 89 44 24 40       	mov    %r8,0x40(%rsp)
    720082f9:	44 89 4c 24 3c       	mov    %r9d,0x3c(%rsp)
    720082fe:	e8 d5 dd ff ff       	callq  720060d8 <instr_create_0dst_0src@plt>
    72008303:	48 8b 74 24 40       	mov    0x40(%rsp),%rsi
    72008308:	48 8b 7c 24 48       	mov    0x48(%rsp),%rdi
    7200830d:	48 89 c2             	mov    %rax,%rdx
    72008310:	48 89 44 24 50       	mov    %rax,0x50(%rsp)
    72008315:	e8 ae df ff ff       	callq  720062c8 <instrlist_meta_preinsert@plt>
    7200831a:	83 bd 80 00 00 00 01 	cmpl   $0x1,0x80(%rbp)
    72008321:	0f 84 69 14 00 00    	je     72009790 <instrument_umbra_code+0x14c0>
    72008327:	83 bd 9c 00 00 00 01 	cmpl   $0x1,0x9c(%rbp)
    7200832e:	0f 84 94 14 00 00    	je     720097c8 <instrument_umbra_code+0x14f8>
    72008334:	83 bd b8 00 00 00 01 	cmpl   $0x1,0xb8(%rbp)
    7200833b:	0f 84 bf 14 00 00    	je     72009800 <instrument_umbra_code+0x1530>
    72008341:	83 bd d4 00 00 00 01 	cmpl   $0x1,0xd4(%rbp)
    72008348:	0f 84 ea 14 00 00    	je     72009838 <instrument_umbra_code+0x1568>
    7200834e:	83 bd f0 00 00 00 01 	cmpl   $0x1,0xf0(%rbp)
    72008355:	0f 84 15 15 00 00    	je     72009870 <instrument_umbra_code+0x15a0>
    7200835b:	83 bd 0c 01 00 00 01 	cmpl   $0x1,0x10c(%rbp)
    72008362:	0f 84 40 15 00 00    	je     720098a8 <instrument_umbra_code+0x15d8>
    72008368:	83 bd 28 01 00 00 01 	cmpl   $0x1,0x128(%rbp)
    7200836f:	0f 84 db 0d 00 00    	je     72009150 <instrument_umbra_code+0xe80>
    72008375:	83 bd 44 01 00 00 01 	cmpl   $0x1,0x144(%rbp)
    7200837c:	0f 84 06 0e 00 00    	je     72009188 <instrument_umbra_code+0xeb8>
    72008382:	83 bd 60 01 00 00 01 	cmpl   $0x1,0x160(%rbp)
    72008389:	0f 84 31 0e 00 00    	je     720091c0 <instrument_umbra_code+0xef0>
    7200838f:	83 bd 7c 01 00 00 01 	cmpl   $0x1,0x17c(%rbp)
    72008396:	0f 84 5c 0e 00 00    	je     720091f8 <instrument_umbra_code+0xf28>
    7200839c:	83 bd 98 01 00 00 01 	cmpl   $0x1,0x198(%rbp)
    720083a3:	0f 84 87 0e 00 00    	je     72009230 <instrument_umbra_code+0xf60>
    720083a9:	83 bd b4 01 00 00 01 	cmpl   $0x1,0x1b4(%rbp)
    720083b0:	0f 84 b2 0e 00 00    	je     72009268 <instrument_umbra_code+0xf98>
    720083b6:	83 bd d0 01 00 00 01 	cmpl   $0x1,0x1d0(%rbp)
    720083bd:	0f 84 dd 0e 00 00    	je     720092a0 <instrument_umbra_code+0xfd0>
    720083c3:	83 bd ec 01 00 00 01 	cmpl   $0x1,0x1ec(%rbp)
    720083ca:	0f 84 08 0f 00 00    	je     720092d8 <instrument_umbra_code+0x1008>
    720083d0:	83 bd 08 02 00 00 01 	cmpl   $0x1,0x208(%rbp)
    720083d7:	0f 84 33 0f 00 00    	je     72009310 <instrument_umbra_code+0x1040>
    720083dd:	83 7d 68 01          	cmpl   $0x1,0x68(%rbp)
    720083e1:	0f 84 61 0f 00 00    	je     72009348 <instrument_umbra_code+0x1078>
    720083e7:	83 7d 44 01          	cmpl   $0x1,0x44(%rbp)
    720083eb:	0f 84 6f 0c 00 00    	je     72009060 <instrument_umbra_code+0xd90>
    720083f1:	83 7d 2c 01          	cmpl   $0x1,0x2c(%rbp)
    720083f5:	0f 84 dd 14 00 00    	je     720098d8 <instrument_umbra_code+0x1608>
    720083fb:	83 7d 64 01          	cmpl   $0x1,0x64(%rbp)
    720083ff:	90                   	nop
    72008400:	0f 84 22 0d 00 00    	je     72009128 <instrument_umbra_code+0xe58>
    72008406:	be 03 00 00 00       	mov    $0x3,%esi
    7200840b:	4c 89 ff             	mov    %r15,%rdi
    7200840e:	e8 c5 dc ff ff       	callq  720060d8 <instr_create_0dst_0src@plt>
    72008413:	48 8b 74 24 50       	mov    0x50(%rsp),%rsi
    72008418:	48 8b 7c 24 48       	mov    0x48(%rsp),%rdi
    7200841d:	48 89 c2             	mov    %rax,%rdx
    72008420:	48 89 44 24 58       	mov    %rax,0x58(%rsp)
    72008425:	e8 9e de ff ff       	callq  720062c8 <instrlist_meta_preinsert@plt>
    7200842a:	8b 55 08             	mov    0x8(%rbp),%edx
    7200842d:	85 d2                	test   %edx,%edx
    7200842f:	0f 8e 2b 02 00 00    	jle    72008660 <instrument_umbra_code+0x390>
    72008435:	8b 44 24 3c          	mov    0x3c(%rsp),%eax
    72008439:	49 8d 8c 24 98 04 00 	lea    0x498(%r12),%rcx
    72008440:	00 
    72008441:	49 8d 9c 24 c0 00 00 	lea    0xc0(%r12),%rbx
    72008448:	00 
    72008449:	48 89 8c 24 88 00 00 	mov    %rcx,0x88(%rsp)
    72008450:	00 
    72008451:	48 8d 8c 24 60 01 00 	lea    0x160(%rsp),%rcx
    72008458:	00 
    72008459:	48 89 9c 24 b0 00 00 	mov    %rbx,0xb0(%rsp)
    72008460:	00 
    72008461:	85 c0                	test   %eax,%eax
    72008463:	49 8d 84 24 a0 04 00 	lea    0x4a0(%r12),%rax
    7200846a:	00 
    7200846b:	0f 94 44 24 73       	sete   0x73(%rsp)
    72008470:	48 89 4c 24 28       	mov    %rcx,0x28(%rsp)
    72008475:	45 31 f6             	xor    %r14d,%r14d
    72008478:	48 89 84 24 90 00 00 	mov    %rax,0x90(%rsp)
    7200847f:	00 
    72008480:	49 8d 84 24 c8 00 00 	lea    0xc8(%r12),%rax
    72008487:	00 
    72008488:	45 31 ed             	xor    %r13d,%r13d
    7200848b:	48 89 84 24 a8 00 00 	mov    %rax,0xa8(%rsp)
    72008492:	00 
    72008493:	eb 14                	jmp    720084a9 <instrument_umbra_code+0x1d9>
    72008495:	0f 1f 00             	nopl   (%rax)
    72008498:	41 83 c6 01          	add    $0x1,%r14d
    7200849c:	49 83 c5 18          	add    $0x18,%r13
    720084a0:	44 39 f2             	cmp    %r14d,%edx
    720084a3:	0f 8e b7 01 00 00    	jle    72008660 <instrument_umbra_code+0x390>
    720084a9:	48 8b 85 18 02 00 00 	mov    0x218(%rbp),%rax
    720084b0:	48 8b 5c 24 40       	mov    0x40(%rsp),%rbx
    720084b5:	4a 8b 04 28          	mov    (%rax,%r13,1),%rax
    720084b9:	48 3b 58 18          	cmp    0x18(%rax),%rbx
    720084bd:	75 d9                	jne    72008498 <instrument_umbra_code+0x1c8>
    720084bf:	48 8b 05 62 2d 21 00 	mov    0x212d62(%rip),%rax        # 7221b228 <_DYNAMIC+0x1a8>
    720084c6:	be 03 00 00 00       	mov    $0x3,%esi
    720084cb:	4c 89 ff             	mov    %r15,%rdi
    720084ce:	8b 50 30             	mov    0x30(%rax),%edx
    720084d1:	48 89 44 24 30       	mov    %rax,0x30(%rsp)
    720084d6:	89 54 24 74          	mov    %edx,0x74(%rsp)
    720084da:	e8 f9 db ff ff       	callq  720060d8 <instr_create_0dst_0src@plt>
    720084df:	48 8b 74 24 50       	mov    0x50(%rsp),%rsi
    720084e4:	48 8b 7c 24 48       	mov    0x48(%rsp),%rdi
    720084e9:	48 89 c2             	mov    %rax,%rdx
    720084ec:	48 89 44 24 68       	mov    %rax,0x68(%rsp)
    720084f1:	e8 d2 dd ff ff       	callq  720062c8 <instrlist_meta_preinsert@plt>
    720084f6:	be 03 00 00 00       	mov    $0x3,%esi
    720084fb:	4c 89 ff             	mov    %r15,%rdi
    720084fe:	e8 d5 db ff ff       	callq  720060d8 <instr_create_0dst_0src@plt>
    72008503:	48 8b 74 24 50       	mov    0x50(%rsp),%rsi
    72008508:	48 8b 7c 24 48       	mov    0x48(%rsp),%rdi
    7200850d:	48 89 c2             	mov    %rax,%rdx
    72008510:	48 89 44 24 60       	mov    %rax,0x60(%rsp)
    72008515:	e8 ae dd ff ff       	callq  720062c8 <instrlist_meta_preinsert@plt>
    7200851a:	48 8b 95 18 02 00 00 	mov    0x218(%rbp),%rdx
    72008521:	4a 8d 0c 2a          	lea    (%rdx,%r13,1),%rcx
    72008525:	48 63 41 10          	movslq 0x10(%rcx),%rax
    72008529:	48 89 8c 24 c0 00 00 	mov    %rcx,0xc0(%rsp)
    72008530:	00 
    72008531:	48 8d 04 40          	lea    (%rax,%rax,2),%rax
    72008535:	48 8b 1c c2          	mov    (%rdx,%rax,8),%rbx
    72008539:	48 8b 43 38          	mov    0x38(%rbx),%rax
    7200853d:	48 85 c0             	test   %rax,%rax
    72008540:	48 89 84 24 b8 00 00 	mov    %rax,0xb8(%rsp)
    72008547:	00 
    72008548:	0f 84 52 17 00 00    	je     72009ca0 <instrument_umbra_code+0x19d0>
    7200854e:	31 c9                	xor    %ecx,%ecx
    72008550:	83 7d 7c 01          	cmpl   $0x1,0x7c(%rbp)
    72008554:	0f 84 d6 07 00 00    	je     72008d30 <instrument_umbra_code+0xa60>
    7200855a:	83 bd 98 00 00 00 01 	cmpl   $0x1,0x98(%rbp)
    72008561:	0f 84 a9 07 00 00    	je     72008d10 <instrument_umbra_code+0xa40>
    72008567:	83 bd b4 00 00 00 01 	cmpl   $0x1,0xb4(%rbp)
    7200856e:	0f 84 7c 07 00 00    	je     72008cf0 <instrument_umbra_code+0xa20>
    72008574:	83 bd d0 00 00 00 01 	cmpl   $0x1,0xd0(%rbp)
    7200857b:	0f 84 4f 07 00 00    	je     72008cd0 <instrument_umbra_code+0xa00>
    72008581:	83 bd ec 00 00 00 01 	cmpl   $0x1,0xec(%rbp)
    72008588:	0f 84 22 07 00 00    	je     72008cb0 <instrument_umbra_code+0x9e0>
    7200858e:	83 bd 08 01 00 00 01 	cmpl   $0x1,0x108(%rbp)
    72008595:	0f 84 f5 06 00 00    	je     72008c90 <instrument_umbra_code+0x9c0>
    7200859b:	83 bd 24 01 00 00 01 	cmpl   $0x1,0x124(%rbp)
    720085a2:	0f 84 c8 06 00 00    	je     72008c70 <instrument_umbra_code+0x9a0>
    720085a8:	83 bd 40 01 00 00 01 	cmpl   $0x1,0x140(%rbp)
    720085af:	0f 84 9b 06 00 00    	je     72008c50 <instrument_umbra_code+0x980>
    720085b5:	83 bd 5c 01 00 00 01 	cmpl   $0x1,0x15c(%rbp)
    720085bc:	0f 84 6e 06 00 00    	je     72008c30 <instrument_umbra_code+0x960>
    720085c2:	83 bd 78 01 00 00 01 	cmpl   $0x1,0x178(%rbp)
    720085c9:	0f 84 41 06 00 00    	je     72008c10 <instrument_umbra_code+0x940>
    720085cf:	83 bd 94 01 00 00 01 	cmpl   $0x1,0x194(%rbp)
    720085d6:	0f 84 14 06 00 00    	je     72008bf0 <instrument_umbra_code+0x920>
    720085dc:	83 bd b0 01 00 00 01 	cmpl   $0x1,0x1b0(%rbp)
    720085e3:	0f 84 e7 05 00 00    	je     72008bd0 <instrument_umbra_code+0x900>
    720085e9:	83 bd cc 01 00 00 01 	cmpl   $0x1,0x1cc(%rbp)
    720085f0:	0f 84 ba 05 00 00    	je     72008bb0 <instrument_umbra_code+0x8e0>
    720085f6:	83 bd e8 01 00 00 01 	cmpl   $0x1,0x1e8(%rbp)
    720085fd:	0f 84 8d 05 00 00    	je     72008b90 <instrument_umbra_code+0x8c0>
    72008603:	83 bd 04 02 00 00 01 	cmpl   $0x1,0x204(%rbp)
    7200860a:	0f 84 60 05 00 00    	je     72008b70 <instrument_umbra_code+0x8a0>
    72008610:	48 8b 94 24 c0 00 00 	mov    0xc0(%rsp),%rdx
    72008617:	00 
    72008618:	48 8b 4c 24 30       	mov    0x30(%rsp),%rcx
    7200861d:	31 c0                	xor    %eax,%eax
    7200861f:	4c 89 e7             	mov    %r12,%rdi
    72008622:	48 8b 32             	mov    (%rdx),%rsi
    72008625:	ff 91 60 01 00 00    	callq  *0x160(%rcx)
    7200862b:	85 c0                	test   %eax,%eax
    7200862d:	0f 85 05 02 00 00    	jne    72008838 <instrument_umbra_code+0x568>
    72008633:	4c 89 eb             	mov    %r13,%rbx
    72008636:	48 03 9d 18 02 00 00 	add    0x218(%rbp),%rbx
    7200863d:	44 3b 73 10          	cmp    0x10(%rbx),%r14d
    72008641:	0f 84 09 07 00 00    	je     72008d50 <instrument_umbra_code+0xa80>
    72008647:	8b 55 08             	mov    0x8(%rbp),%edx
    7200864a:	41 83 c6 01          	add    $0x1,%r14d
    7200864e:	49 83 c5 18          	add    $0x18,%r13
    72008652:	44 39 f2             	cmp    %r14d,%edx
    72008655:	0f 8f 4e fe ff ff    	jg     720084a9 <instrument_umbra_code+0x1d9>
    7200865b:	0f 1f 44 00 00       	nopl   0x0(%rax,%rax,1)
    72008660:	83 bd 84 00 00 00 01 	cmpl   $0x1,0x84(%rbp)
    72008667:	0f 84 f3 0e 00 00    	je     72009560 <instrument_umbra_code+0x1290>
    7200866d:	83 bd a0 00 00 00 01 	cmpl   $0x1,0xa0(%rbp)
    72008674:	0f 84 26 0f 00 00    	je     720095a0 <instrument_umbra_code+0x12d0>
    7200867a:	83 bd bc 00 00 00 01 	cmpl   $0x1,0xbc(%rbp)
    72008681:	0f 84 61 0f 00 00    	je     720095e8 <instrument_umbra_code+0x1318>
    72008687:	83 bd d8 00 00 00 01 	cmpl   $0x1,0xd8(%rbp)
    7200868e:	0f 84 9c 0f 00 00    	je     72009630 <instrument_umbra_code+0x1360>
    72008694:	83 bd f4 00 00 00 01 	cmpl   $0x1,0xf4(%rbp)
    7200869b:	0f 84 d7 0f 00 00    	je     72009678 <instrument_umbra_code+0x13a8>
    720086a1:	83 bd 10 01 00 00 01 	cmpl   $0x1,0x110(%rbp)
    720086a8:	0f 84 12 10 00 00    	je     720096c0 <instrument_umbra_code+0x13f0>
    720086ae:	83 bd 2c 01 00 00 01 	cmpl   $0x1,0x12c(%rbp)
    720086b5:	0f 84 4d 10 00 00    	je     72009708 <instrument_umbra_code+0x1438>
    720086bb:	83 bd 48 01 00 00 01 	cmpl   $0x1,0x148(%rbp)
    720086c2:	0f 84 88 10 00 00    	je     72009750 <instrument_umbra_code+0x1480>
    720086c8:	83 bd 64 01 00 00 01 	cmpl   $0x1,0x164(%rbp)
    720086cf:	0f 84 9b 0c 00 00    	je     72009370 <instrument_umbra_code+0x10a0>
    720086d5:	83 bd 80 01 00 00 01 	cmpl   $0x1,0x180(%rbp)
    720086dc:	0f 84 d6 0c 00 00    	je     720093b8 <instrument_umbra_code+0x10e8>
    720086e2:	83 bd 9c 01 00 00 01 	cmpl   $0x1,0x19c(%rbp)
    720086e9:	0f 84 11 0d 00 00    	je     72009400 <instrument_umbra_code+0x1130>
    720086ef:	83 bd b8 01 00 00 01 	cmpl   $0x1,0x1b8(%rbp)
    720086f6:	0f 84 4c 0d 00 00    	je     72009448 <instrument_umbra_code+0x1178>
    720086fc:	83 bd d4 01 00 00 01 	cmpl   $0x1,0x1d4(%rbp)
    72008703:	0f 84 87 0d 00 00    	je     72009490 <instrument_umbra_code+0x11c0>
    72008709:	83 bd f0 01 00 00 01 	cmpl   $0x1,0x1f0(%rbp)
    72008710:	0f 84 c2 0d 00 00    	je     720094d8 <instrument_umbra_code+0x1208>
    72008716:	83 bd 0c 02 00 00 01 	cmpl   $0x1,0x20c(%rbp)
    7200871d:	0f 84 fd 0d 00 00    	je     72009520 <instrument_umbra_code+0x1250>
    72008723:	8b 7d 30             	mov    0x30(%rbp),%edi
    72008726:	85 ff                	test   %edi,%edi
    72008728:	0f 84 f3 00 00 00    	je     72008821 <instrument_umbra_code+0x551>
    7200872e:	48 8b 05 f3 2a 21 00 	mov    0x212af3(%rip),%rax        # 7221b228 <_DYNAMIC+0x1a8>
    72008735:	c7 45 28 00 00 00 00 	movl   $0x0,0x28(%rbp)
    7200873c:	c7 45 30 00 00 00 00 	movl   $0x0,0x30(%rbp)
    72008743:	8b 70 40             	mov    0x40(%rax),%esi
    72008746:	48 89 44 24 30       	mov    %rax,0x30(%rsp)
    7200874b:	85 f6                	test   %esi,%esi
    7200874d:	74 07                	je     72008756 <instrument_umbra_code+0x486>
    7200874f:	8b 4d 5c             	mov    0x5c(%rbp),%ecx
    72008752:	85 c9                	test   %ecx,%ecx
    72008754:	75 1b                	jne    72008771 <instrument_umbra_code+0x4a1>
    72008756:	48 8b 4c 24 58       	mov    0x58(%rsp),%rcx
    7200875b:	48 8b 54 24 48       	mov    0x48(%rsp),%rdx
    72008760:	41 b8 01 00 00 00    	mov    $0x1,%r8d
    72008766:	4c 89 e6             	mov    %r12,%rsi
    72008769:	4c 89 ff             	mov    %r15,%rdi
    7200876c:	e8 f7 d7 ff ff       	callq  72005f68 <umbra_save_reg@plt>
    72008771:	bf 35 00 00 00       	mov    $0x35,%edi
    72008776:	e8 ad de ff ff       	callq  72006628 <opnd_create_reg@plt>
    7200877b:	48 89 d1             	mov    %rdx,%rcx
    7200877e:	89 84 24 d0 00 00 00 	mov    %eax,0xd0(%rsp)
    72008785:	48 89 94 24 d8 00 00 	mov    %rdx,0xd8(%rsp)
    7200878c:	00 
    7200878d:	48 8b 94 24 d0 00 00 	mov    0xd0(%rsp),%rdx
    72008794:	00 
    72008795:	be 45 00 00 00       	mov    $0x45,%esi
    7200879a:	4c 89 ff             	mov    %r15,%rdi
    7200879d:	48 89 8c 24 f8 00 00 	mov    %rcx,0xf8(%rsp)
    720087a4:	00 
    720087a5:	48 89 94 24 f0 00 00 	mov    %rdx,0xf0(%rsp)
    720087ac:	00 
    720087ad:	e8 46 dd ff ff       	callq  720064f8 <instr_create_1dst_0src@plt>
    720087b2:	48 8b 74 24 58       	mov    0x58(%rsp),%rsi
    720087b7:	48 8b 7c 24 48       	mov    0x48(%rsp),%rdi
    720087bc:	48 89 c2             	mov    %rax,%rdx
    720087bf:	e8 04 db ff ff       	callq  720062c8 <instrlist_meta_preinsert@plt>
    720087c4:	bf 31 00 00 00       	mov    $0x31,%edi
    720087c9:	e8 5a de ff ff       	callq  72006628 <opnd_create_reg@plt>
    720087ce:	48 89 d1             	mov    %rdx,%rcx
    720087d1:	89 84 24 d0 00 00 00 	mov    %eax,0xd0(%rsp)
    720087d8:	48 89 94 24 d8 00 00 	mov    %rdx,0xd8(%rsp)
    720087df:	00 
    720087e0:	48 8b 94 24 d0 00 00 	mov    0xd0(%rsp),%rdx
    720087e7:	00 
    720087e8:	be a8 00 00 00       	mov    $0xa8,%esi
    720087ed:	4c 89 ff             	mov    %r15,%rdi
    720087f0:	48 89 8c 24 e8 00 00 	mov    %rcx,0xe8(%rsp)
    720087f7:	00 
    720087f8:	48 89 94 24 e0 00 00 	mov    %rdx,0xe0(%rsp)
    720087ff:	00 
    72008800:	e8 f3 dc ff ff       	callq  720064f8 <instr_create_1dst_0src@plt>
    72008805:	48 8b 74 24 58       	mov    0x58(%rsp),%rsi
    7200880a:	48 8b 7c 24 48       	mov    0x48(%rsp),%rdi
    7200880f:	48 89 c2             	mov    %rax,%rdx
    72008812:	e8 b1 da ff ff       	callq  720062c8 <instrlist_meta_preinsert@plt>
    72008817:	83 7d 44 01          	cmpl   $0x1,0x44(%rbp)
    7200881b:	0f 84 af 08 00 00    	je     720090d0 <instrument_umbra_code+0xe00>
    72008821:	48 81 c4 78 01 00 00 	add    $0x178,%rsp
    72008828:	5b                   	pop    %rbx
    72008829:	5d                   	pop    %rbp
    7200882a:	41 5c                	pop    %r12
    7200882c:	41 5d                	pop    %r13
    7200882e:	41 5e                	pop    %r14
    72008830:	41 5f                	pop    %r15
    72008832:	c3                   	retq   
    72008833:	0f 1f 44 00 00       	nopl   0x0(%rax,%rax,1)
    72008838:	0f b6 55 18          	movzbl 0x18(%rbp),%edx
    7200883c:	4c 8b 44 24 60       	mov    0x60(%rsp),%r8
    72008841:	4c 89 ff             	mov    %r15,%rdi
    72008844:	48 8b 4c 24 48       	mov    0x48(%rsp),%rcx
    72008849:	48 8b b4 24 c0 00 00 	mov    0xc0(%rsp),%rsi
    72008850:	00 
    72008851:	e8 4a f8 ff ff       	callq  720080a0 <preinsert_calculate_app_addr>
    72008856:	48 8b 94 24 c0 00 00 	mov    0xc0(%rsp),%rdx
    7200885d:	00 
    7200885e:	0f b6 5d 18          	movzbl 0x18(%rbp),%ebx
    72008862:	48 8b 02             	mov    (%rdx),%rax
    72008865:	89 9c 24 cc 00 00 00 	mov    %ebx,0xcc(%rsp)
    7200886c:	8b 78 20             	mov    0x20(%rax),%edi
    7200886f:	48 8b 70 28          	mov    0x28(%rax),%rsi
    72008873:	e8 30 dd ff ff       	callq  720065a8 <opnd_is_rel_addr@plt>
    72008878:	85 c0                	test   %eax,%eax
    7200887a:	0f 84 30 01 00 00    	je     720089b0 <instrument_umbra_code+0x6e0>
    72008880:	48 8b 9c 24 c0 00 00 	mov    0xc0(%rsp),%rbx
    72008887:	00 
    72008888:	48 8b 03             	mov    (%rbx),%rax
    7200888b:	8b 78 20             	mov    0x20(%rax),%edi
    7200888e:	48 8b 70 28          	mov    0x28(%rax),%rsi
    72008892:	e8 11 d7 ff ff       	callq  72005fa8 <opnd_get_addr@plt>
    72008897:	48 89 c3             	mov    %rax,%rbx
    7200889a:	48 8b 44 24 30       	mov    0x30(%rsp),%rax
    7200889f:	8b 88 30 01 00 00    	mov    0x130(%rax),%ecx
    720088a5:	85 c9                	test   %ecx,%ecx
    720088a7:	7e 0e                	jle    720088b7 <instrument_umbra_code+0x5e7>
    720088a9:	8b 80 34 01 00 00    	mov    0x134(%rax),%eax
    720088af:	85 c0                	test   %eax,%eax
    720088b1:	0f 85 01 08 00 00    	jne    720090b8 <instrument_umbra_code+0xde8>
    720088b7:	48 89 df             	mov    %rbx,%rdi
    720088ba:	e8 09 df ff ff       	callq  720067c8 <memory_mod_app_lookup@plt>
    720088bf:	48 85 c0             	test   %rax,%rax
    720088c2:	0f 84 ae 1a 00 00    	je     7200a376 <instrument_umbra_code+0x20a6>
    720088c8:	48 8b 74 24 28       	mov    0x28(%rsp),%rsi
    720088cd:	48 89 df             	mov    %rbx,%rdi
    720088d0:	e8 43 e0 ff ff       	callq  72006918 <compute_shd_memory_addr@plt>
    720088d5:	8b bc 24 cc 00 00 00 	mov    0xcc(%rsp),%edi
    720088dc:	e8 47 dd ff ff       	callq  72006628 <opnd_create_reg@plt>
    720088e1:	48 8b bc 24 60 01 00 	mov    0x160(%rsp),%rdi
    720088e8:	00 
    720088e9:	89 84 24 d0 00 00 00 	mov    %eax,0xd0(%rsp)
    720088f0:	be 92 00 00 00       	mov    $0x92,%esi
    720088f5:	48 8b 84 24 d0 00 00 	mov    0xd0(%rsp),%rax
    720088fc:	00 
    720088fd:	48 89 94 24 d8 00 00 	mov    %rdx,0xd8(%rsp)
    72008904:	00 
    72008905:	48 89 94 24 48 01 00 	mov    %rdx,0x148(%rsp)
    7200890c:	00 
    7200890d:	48 89 84 24 40 01 00 	mov    %rax,0x140(%rsp)
    72008914:	00 
    72008915:	e8 ae d4 ff ff       	callq  72005dc8 <opnd_create_immed_int@plt>
    7200891a:	48 8b 8c 24 48 01 00 	mov    0x148(%rsp),%rcx
    72008921:	00 
    72008922:	48 89 d6             	mov    %rdx,%rsi
    72008925:	89 84 24 d0 00 00 00 	mov    %eax,0xd0(%rsp)
    7200892c:	48 89 94 24 d8 00 00 	mov    %rdx,0xd8(%rsp)
    72008933:	00 
    72008934:	4c 8b 84 24 d0 00 00 	mov    0xd0(%rsp),%r8
    7200893b:	00 
    7200893c:	49 89 f1             	mov    %rsi,%r9
    7200893f:	48 89 94 24 38 01 00 	mov    %rdx,0x138(%rsp)
    72008946:	00 
    72008947:	8b 94 24 40 01 00 00 	mov    0x140(%rsp),%edx
    7200894e:	be 39 00 00 00       	mov    $0x39,%esi
    72008953:	4c 89 ff             	mov    %r15,%rdi
    72008956:	4c 89 84 24 30 01 00 	mov    %r8,0x130(%rsp)
    7200895d:	00 
    7200895e:	e8 f5 df ff ff       	callq  72006958 <instr_create_1dst_1src@plt>
    72008963:	48 8b 74 24 60       	mov    0x60(%rsp),%rsi
    72008968:	48 8b 7c 24 48       	mov    0x48(%rsp),%rdi
    7200896d:	48 89 c2             	mov    %rax,%rdx
    72008970:	e8 53 d9 ff ff       	callq  720062c8 <instrlist_meta_preinsert@plt>
    72008975:	48 8b 5c 24 30       	mov    0x30(%rsp),%rbx
    7200897a:	48 8b 83 68 01 00 00 	mov    0x168(%rbx),%rax
    72008981:	48 85 c0             	test   %rax,%rax
    72008984:	0f 84 a9 fc ff ff    	je     72008633 <instrument_umbra_code+0x363>
    7200898a:	48 8b 9c 24 c0 00 00 	mov    0xc0(%rsp),%rbx
    72008991:	00 
    72008992:	4c 8b 44 24 60       	mov    0x60(%rsp),%r8
    72008997:	4c 89 e6             	mov    %r12,%rsi
    7200899a:	48 8b 4c 24 48       	mov    0x48(%rsp),%rcx
    7200899f:	4c 89 ff             	mov    %r15,%rdi
    720089a2:	48 8b 13             	mov    (%rbx),%rdx
    720089a5:	ff d0                	callq  *%rax
    720089a7:	e9 87 fc ff ff       	jmpq   72008633 <instrument_umbra_code+0x363>
    720089ac:	0f 1f 40 00          	nopl   0x0(%rax)
    720089b0:	48 8b 8c 24 c0 00 00 	mov    0xc0(%rsp),%rcx
    720089b7:	00 
    720089b8:	48 8b 01             	mov    (%rcx),%rax
    720089bb:	8b 78 20             	mov    0x20(%rax),%edi
    720089be:	48 8b 70 28          	mov    0x28(%rax),%rsi
    720089c2:	e8 61 da ff ff       	callq  72006428 <opnd_is_abs_addr@plt>
    720089c7:	85 c0                	test   %eax,%eax
    720089c9:	0f 85 b1 fe ff ff    	jne    72008880 <instrument_umbra_code+0x5b0>
    720089cf:	48 8b 54 24 30       	mov    0x30(%rsp),%rdx
    720089d4:	8b 82 2c 01 00 00    	mov    0x12c(%rdx),%eax
    720089da:	85 c0                	test   %eax,%eax
    720089dc:	0f 85 8c 18 00 00    	jne    7200a26e <instrument_umbra_code+0x1f9e>
    720089e2:	48 8b 4c 24 30       	mov    0x30(%rsp),%rcx
    720089e7:	8b 99 30 01 00 00    	mov    0x130(%rcx),%ebx
    720089ed:	85 db                	test   %ebx,%ebx
    720089ef:	0f 8e ac 13 00 00    	jle    72009da1 <instrument_umbra_code+0x1ad1>
    720089f5:	8b 81 34 01 00 00    	mov    0x134(%rcx),%eax
    720089fb:	85 c0                	test   %eax,%eax
    720089fd:	0f 85 d2 12 00 00    	jne    72009cd5 <instrument_umbra_code+0x1a05>
    72008a03:	8b bc 24 cc 00 00 00 	mov    0xcc(%rsp),%edi
    72008a0a:	e8 19 dc ff ff       	callq  72006628 <opnd_create_reg@plt>
    72008a0f:	89 84 24 d0 00 00 00 	mov    %eax,0xd0(%rsp)
    72008a16:	48 8b 84 24 d0 00 00 	mov    0xd0(%rsp),%rax
    72008a1d:	00 
    72008a1e:	48 89 94 24 d8 00 00 	mov    %rdx,0xd8(%rsp)
    72008a25:	00 
    72008a26:	48 89 94 24 48 01 00 	mov    %rdx,0x148(%rsp)
    72008a2d:	00 
    72008a2e:	48 89 84 24 40 01 00 	mov    %rax,0x140(%rsp)
    72008a35:	00 
    72008a36:	be 8e 00 00 00       	mov    $0x8e,%esi
    72008a3b:	48 63 fb             	movslq %ebx,%rdi
    72008a3e:	e8 85 d3 ff ff       	callq  72005dc8 <opnd_create_immed_int@plt>
    72008a43:	48 8b 8c 24 48 01 00 	mov    0x148(%rsp),%rcx
    72008a4a:	00 
    72008a4b:	89 84 24 d0 00 00 00 	mov    %eax,0xd0(%rsp)
    72008a52:	48 89 d6             	mov    %rdx,%rsi
    72008a55:	4c 8b 84 24 d0 00 00 	mov    0xd0(%rsp),%r8
    72008a5c:	00 
    72008a5d:	48 8b 84 24 40 01 00 	mov    0x140(%rsp),%rax
    72008a64:	00 
    72008a65:	49 89 f1             	mov    %rsi,%r9
    72008a68:	48 89 94 24 d8 00 00 	mov    %rdx,0xd8(%rsp)
    72008a6f:	00 
    72008a70:	48 89 94 24 38 01 00 	mov    %rdx,0x138(%rsp)
    72008a77:	00 
    72008a78:	be 02 01 00 00       	mov    $0x102,%esi
    72008a7d:	8b 94 24 40 01 00 00 	mov    0x140(%rsp),%edx
    72008a84:	48 89 4c 24 08       	mov    %rcx,0x8(%rsp)
    72008a89:	4c 89 84 24 30 01 00 	mov    %r8,0x130(%rsp)
    72008a90:	00 
    72008a91:	48 89 04 24          	mov    %rax,(%rsp)
    72008a95:	4c 89 ff             	mov    %r15,%rdi
    72008a98:	e8 4b d9 ff ff       	callq  720063e8 <instr_create_1dst_2src@plt>
    72008a9d:	48 8b 74 24 60       	mov    0x60(%rsp),%rsi
    72008aa2:	48 8b 7c 24 48       	mov    0x48(%rsp),%rdi
    72008aa7:	48 89 c2             	mov    %rax,%rdx
    72008aaa:	e8 19 d8 ff ff       	callq  720062c8 <instrlist_meta_preinsert@plt>
    72008aaf:	8b bc 24 cc 00 00 00 	mov    0xcc(%rsp),%edi
    72008ab6:	e8 6d db ff ff       	callq  72006628 <opnd_create_reg@plt>
    72008abb:	48 8b bc 24 b8 00 00 	mov    0xb8(%rsp),%rdi
    72008ac2:	00 
    72008ac3:	89 84 24 d0 00 00 00 	mov    %eax,0xd0(%rsp)
    72008aca:	be 92 00 00 00       	mov    $0x92,%esi
    72008acf:	48 8b 84 24 d0 00 00 	mov    0xd0(%rsp),%rax
    72008ad6:	00 
    72008ad7:	48 89 94 24 d8 00 00 	mov    %rdx,0xd8(%rsp)
    72008ade:	00 
    72008adf:	48 89 94 24 48 01 00 	mov    %rdx,0x148(%rsp)
    72008ae6:	00 
    72008ae7:	48 83 c7 08          	add    $0x8,%rdi
    72008aeb:	48 89 84 24 40 01 00 	mov    %rax,0x140(%rsp)
    72008af2:	00 
    72008af3:	e8 50 d3 ff ff       	callq  72005e48 <opnd_create_rel_addr@plt>
    72008af8:	48 8b 8c 24 48 01 00 	mov    0x148(%rsp),%rcx
    72008aff:	00 
    72008b00:	89 84 24 d0 00 00 00 	mov    %eax,0xd0(%rsp)
    72008b07:	48 89 d6             	mov    %rdx,%rsi
    72008b0a:	48 89 94 24 d8 00 00 	mov    %rdx,0xd8(%rsp)
    72008b11:	00 
    72008b12:	4c 8b 84 24 d0 00 00 	mov    0xd0(%rsp),%r8
    72008b19:	00 
    72008b1a:	49 89 f1             	mov    %rsi,%r9
    72008b1d:	48 89 94 24 38 01 00 	mov    %rdx,0x138(%rsp)
    72008b24:	00 
    72008b25:	48 8b 84 24 40 01 00 	mov    0x140(%rsp),%rax
    72008b2c:	00 
    72008b2d:	4c 89 ff             	mov    %r15,%rdi
    72008b30:	8b 94 24 40 01 00 00 	mov    0x140(%rsp),%edx
    72008b37:	be 04 00 00 00       	mov    $0x4,%esi
    72008b3c:	48 89 4c 24 08       	mov    %rcx,0x8(%rsp)
    72008b41:	4c 89 84 24 30 01 00 	mov    %r8,0x130(%rsp)
    72008b48:	00 
    72008b49:	48 89 04 24          	mov    %rax,(%rsp)
    72008b4d:	e8 96 d8 ff ff       	callq  720063e8 <instr_create_1dst_2src@plt>
    72008b52:	48 8b 74 24 60       	mov    0x60(%rsp),%rsi
    72008b57:	48 8b 7c 24 48       	mov    0x48(%rsp),%rdi
    72008b5c:	48 89 c2             	mov    %rax,%rdx
    72008b5f:	e8 64 d7 ff ff       	callq  720062c8 <instrlist_meta_preinsert@plt>
    72008b64:	e9 0c fe ff ff       	jmpq   72008975 <instrument_umbra_code+0x6a5>
    72008b69:	0f 1f 80 00 00 00 00 	nopl   0x0(%rax)
    72008b70:	0f b6 85 f8 01 00 00 	movzbl 0x1f8(%rbp),%eax
    72008b77:	48 63 d1             	movslq %ecx,%rdx
    72008b7a:	41 88 84 14 68 04 00 	mov    %al,0x468(%r12,%rdx,1)
    72008b81:	00 
    72008b82:	e9 89 fa ff ff       	jmpq   72008610 <instrument_umbra_code+0x340>
    72008b87:	66 0f 1f 84 00 00 00 	nopw   0x0(%rax,%rax,1)
    72008b8e:	00 00 
    72008b90:	0f b6 85 dc 01 00 00 	movzbl 0x1dc(%rbp),%eax
    72008b97:	48 63 d1             	movslq %ecx,%rdx
    72008b9a:	83 c1 01             	add    $0x1,%ecx
    72008b9d:	41 88 84 14 68 04 00 	mov    %al,0x468(%r12,%rdx,1)
    72008ba4:	00 
    72008ba5:	e9 59 fa ff ff       	jmpq   72008603 <instrument_umbra_code+0x333>
    72008baa:	66 0f 1f 44 00 00    	nopw   0x0(%rax,%rax,1)
    72008bb0:	0f b6 85 c0 01 00 00 	movzbl 0x1c0(%rbp),%eax
    72008bb7:	48 63 d1             	movslq %ecx,%rdx
    72008bba:	83 c1 01             	add    $0x1,%ecx
    72008bbd:	41 88 84 14 68 04 00 	mov    %al,0x468(%r12,%rdx,1)
    72008bc4:	00 
    72008bc5:	e9 2c fa ff ff       	jmpq   720085f6 <instrument_umbra_code+0x326>
    72008bca:	66 0f 1f 44 00 00    	nopw   0x0(%rax,%rax,1)
    72008bd0:	0f b6 85 a4 01 00 00 	movzbl 0x1a4(%rbp),%eax
    72008bd7:	48 63 d1             	movslq %ecx,%rdx
    72008bda:	83 c1 01             	add    $0x1,%ecx
    72008bdd:	41 88 84 14 68 04 00 	mov    %al,0x468(%r12,%rdx,1)
    72008be4:	00 
    72008be5:	e9 ff f9 ff ff       	jmpq   720085e9 <instrument_umbra_code+0x319>
    72008bea:	66 0f 1f 44 00 00    	nopw   0x0(%rax,%rax,1)
    72008bf0:	0f b6 85 88 01 00 00 	movzbl 0x188(%rbp),%eax
    72008bf7:	48 63 d1             	movslq %ecx,%rdx
    72008bfa:	83 c1 01             	add    $0x1,%ecx
    72008bfd:	41 88 84 14 68 04 00 	mov    %al,0x468(%r12,%rdx,1)
    72008c04:	00 
    72008c05:	e9 d2 f9 ff ff       	jmpq   720085dc <instrument_umbra_code+0x30c>
    72008c0a:	66 0f 1f 44 00 00    	nopw   0x0(%rax,%rax,1)
    72008c10:	0f b6 85 6c 01 00 00 	movzbl 0x16c(%rbp),%eax
    72008c17:	48 63 d1             	movslq %ecx,%rdx
    72008c1a:	83 c1 01             	add    $0x1,%ecx
    72008c1d:	41 88 84 14 68 04 00 	mov    %al,0x468(%r12,%rdx,1)
    72008c24:	00 
    72008c25:	e9 a5 f9 ff ff       	jmpq   720085cf <instrument_umbra_code+0x2ff>
    72008c2a:	66 0f 1f 44 00 00    	nopw   0x0(%rax,%rax,1)
    72008c30:	0f b6 85 50 01 00 00 	movzbl 0x150(%rbp),%eax
    72008c37:	48 63 d1             	movslq %ecx,%rdx
    72008c3a:	83 c1 01             	add    $0x1,%ecx
    72008c3d:	41 88 84 14 68 04 00 	mov    %al,0x468(%r12,%rdx,1)
    72008c44:	00 
    72008c45:	e9 78 f9 ff ff       	jmpq   720085c2 <instrument_umbra_code+0x2f2>
    72008c4a:	66 0f 1f 44 00 00    	nopw   0x0(%rax,%rax,1)
    72008c50:	0f b6 85 34 01 00 00 	movzbl 0x134(%rbp),%eax
    72008c57:	48 63 d1             	movslq %ecx,%rdx
    72008c5a:	83 c1 01             	add    $0x1,%ecx
    72008c5d:	41 88 84 14 68 04 00 	mov    %al,0x468(%r12,%rdx,1)
    72008c64:	00 
    72008c65:	e9 4b f9 ff ff       	jmpq   720085b5 <instrument_umbra_code+0x2e5>
    72008c6a:	66 0f 1f 44 00 00    	nopw   0x0(%rax,%rax,1)
    72008c70:	0f b6 85 18 01 00 00 	movzbl 0x118(%rbp),%eax
    72008c77:	48 63 d1             	movslq %ecx,%rdx
    72008c7a:	83 c1 01             	add    $0x1,%ecx
    72008c7d:	41 88 84 14 68 04 00 	mov    %al,0x468(%r12,%rdx,1)
    72008c84:	00 
    72008c85:	e9 1e f9 ff ff       	jmpq   720085a8 <instrument_umbra_code+0x2d8>
    72008c8a:	66 0f 1f 44 00 00    	nopw   0x0(%rax,%rax,1)
    72008c90:	0f b6 85 fc 00 00 00 	movzbl 0xfc(%rbp),%eax
    72008c97:	48 63 d1             	movslq %ecx,%rdx
    72008c9a:	83 c1 01             	add    $0x1,%ecx
    72008c9d:	41 88 84 14 68 04 00 	mov    %al,0x468(%r12,%rdx,1)
    72008ca4:	00 
    72008ca5:	e9 f1 f8 ff ff       	jmpq   7200859b <instrument_umbra_code+0x2cb>
    72008caa:	66 0f 1f 44 00 00    	nopw   0x0(%rax,%rax,1)
    72008cb0:	0f b6 85 e0 00 00 00 	movzbl 0xe0(%rbp),%eax
    72008cb7:	48 63 d1             	movslq %ecx,%rdx
    72008cba:	83 c1 01             	add    $0x1,%ecx
    72008cbd:	41 88 84 14 68 04 00 	mov    %al,0x468(%r12,%rdx,1)
    72008cc4:	00 
    72008cc5:	e9 c4 f8 ff ff       	jmpq   7200858e <instrument_umbra_code+0x2be>
    72008cca:	66 0f 1f 44 00 00    	nopw   0x0(%rax,%rax,1)
    72008cd0:	0f b6 85 c4 00 00 00 	movzbl 0xc4(%rbp),%eax
    72008cd7:	48 63 d1             	movslq %ecx,%rdx
    72008cda:	83 c1 01             	add    $0x1,%ecx
    72008cdd:	41 88 84 14 68 04 00 	mov    %al,0x468(%r12,%rdx,1)
    72008ce4:	00 
    72008ce5:	e9 97 f8 ff ff       	jmpq   72008581 <instrument_umbra_code+0x2b1>
    72008cea:	66 0f 1f 44 00 00    	nopw   0x0(%rax,%rax,1)
    72008cf0:	0f b6 85 a8 00 00 00 	movzbl 0xa8(%rbp),%eax
    72008cf7:	48 63 d1             	movslq %ecx,%rdx
    72008cfa:	83 c1 01             	add    $0x1,%ecx
    72008cfd:	41 88 84 14 68 04 00 	mov    %al,0x468(%r12,%rdx,1)
    72008d04:	00 
    72008d05:	e9 6a f8 ff ff       	jmpq   72008574 <instrument_umbra_code+0x2a4>
    72008d0a:	66 0f 1f 44 00 00    	nopw   0x0(%rax,%rax,1)
    72008d10:	0f b6 85 8c 00 00 00 	movzbl 0x8c(%rbp),%eax
    72008d17:	48 63 d1             	movslq %ecx,%rdx
    72008d1a:	83 c1 01             	add    $0x1,%ecx
    72008d1d:	41 88 84 14 68 04 00 	mov    %al,0x468(%r12,%rdx,1)
    72008d24:	00 
    72008d25:	e9 3d f8 ff ff       	jmpq   72008567 <instrument_umbra_code+0x297>
    72008d2a:	66 0f 1f 44 00 00    	nopw   0x0(%rax,%rax,1)
    72008d30:	0f b6 45 70          	movzbl 0x70(%rbp),%eax
    72008d34:	b9 01 00 00 00       	mov    $0x1,%ecx
    72008d39:	41 88 84 24 68 04 00 	mov    %al,0x468(%r12)
    72008d40:	00 
    72008d41:	e9 14 f8 ff ff       	jmpq   7200855a <instrument_umbra_code+0x28a>
    72008d46:	66 2e 0f 1f 84 00 00 	nopw   %cs:0x0(%rax,%rax,1)
    72008d4d:	00 00 00 
    72008d50:	8b 44 24 74          	mov    0x74(%rsp),%eax
    72008d54:	85 c0                	test   %eax,%eax
    72008d56:	0f 85 34 03 00 00    	jne    72009090 <instrument_umbra_code+0xdc0>
    72008d5c:	48 8b 03             	mov    (%rbx),%rax
    72008d5f:	48 89 c2             	mov    %rax,%rdx
    72008d62:	48 8b 40 38          	mov    0x38(%rax),%rax
    72008d66:	48 85 c0             	test   %rax,%rax
    72008d69:	48 89 84 24 80 00 00 	mov    %rax,0x80(%rsp)
    72008d70:	00 
    72008d71:	0f 84 d8 10 00 00    	je     72009e4f <instrument_umbra_code+0x1b7f>
    72008d77:	8b 7a 20             	mov    0x20(%rdx),%edi
    72008d7a:	48 8b 72 28          	mov    0x28(%rdx),%rsi
    72008d7e:	e8 25 d8 ff ff       	callq  720065a8 <opnd_is_rel_addr@plt>
    72008d83:	85 c0                	test   %eax,%eax
    72008d85:	0f 84 5d 0c 00 00    	je     720099e8 <instrument_umbra_code+0x1718>
    72008d8b:	4c 89 eb             	mov    %r13,%rbx
    72008d8e:	48 03 9d 18 02 00 00 	add    0x218(%rbp),%rbx
    72008d95:	48 8b 03             	mov    (%rbx),%rax
    72008d98:	8b 78 20             	mov    0x20(%rax),%edi
    72008d9b:	48 8b 70 28          	mov    0x28(%rax),%rsi
    72008d9f:	e8 04 d8 ff ff       	callq  720065a8 <opnd_is_rel_addr@plt>
    72008da4:	85 c0                	test   %eax,%eax
    72008da6:	0f 85 9b f8 ff ff    	jne    72008647 <instrument_umbra_code+0x377>
    72008dac:	48 8b 03             	mov    (%rbx),%rax
    72008daf:	8b 78 20             	mov    0x20(%rax),%edi
    72008db2:	48 8b 70 28          	mov    0x28(%rax),%rsi
    72008db6:	e8 6d d6 ff ff       	callq  72006428 <opnd_is_abs_addr@plt>
    72008dbb:	85 c0                	test   %eax,%eax
    72008dbd:	0f 85 84 f8 ff ff    	jne    72008647 <instrument_umbra_code+0x377>
    72008dc3:	48 63 43 10          	movslq 0x10(%rbx),%rax
    72008dc7:	48 8b 95 18 02 00 00 	mov    0x218(%rbp),%rdx
    72008dce:	48 8d 04 40          	lea    (%rax,%rax,2),%rax
    72008dd2:	48 8b 04 c2          	mov    (%rdx,%rax,8),%rax
    72008dd6:	48 8b 40 38          	mov    0x38(%rax),%rax
    72008dda:	48 85 c0             	test   %rax,%rax
    72008ddd:	48 89 84 24 a0 00 00 	mov    %rax,0xa0(%rsp)
    72008de4:	00 
    72008de5:	0f 84 36 16 00 00    	je     7200a421 <instrument_umbra_code+0x2151>
    72008deb:	0f b6 45 18          	movzbl 0x18(%rbp),%eax
    72008def:	84 c0                	test   %al,%al
    72008df1:	75 43                	jne    72008e36 <instrument_umbra_code+0xb66>
    72008df3:	48 8b 05 5e 24 21 00 	mov    0x21245e(%rip),%rax        # 7221b258 <_DYNAMIC+0x1d8>
    72008dfa:	8b 38                	mov    (%rax),%edi
    72008dfc:	83 ff ff             	cmp    $0xffffffffffffffff,%edi
    72008dff:	0f 84 0a 16 00 00    	je     7200a40f <instrument_umbra_code+0x213f>
    72008e05:	4c 8d 0d 0c 06 01 00 	lea    0x1060c(%rip),%r9        # 72019418 <primes+0x2b8>
    72008e0c:	4c 8d 05 ed f7 00 00 	lea    0xf7ed(%rip),%r8        # 72018600 <main+0x770>
    72008e13:	48 8d 15 a6 f7 00 00 	lea    0xf7a6(%rip),%rdx        # 720185c0 <main+0x730>
    72008e1a:	48 8d 35 af f5 00 00 	lea    0xf5af(%rip),%rsi        # 720183d0 <main+0x540>
    72008e21:	31 c0                	xor    %eax,%eax
    72008e23:	b9 b3 04 00 00       	mov    $0x4b3,%ecx
    72008e28:	e8 8b d3 ff ff       	callq  720061b8 <dr_fprintf@plt>
    72008e2d:	e8 76 d8 ff ff       	callq  720066a8 <dr_abort@plt>
    72008e32:	0f b6 45 18          	movzbl 0x18(%rbp),%eax
    72008e36:	3c 10                	cmp    $0x10,%al
    72008e38:	76 43                	jbe    72008e7d <instrument_umbra_code+0xbad>
    72008e3a:	48 8b 05 17 24 21 00 	mov    0x212417(%rip),%rax        # 7221b258 <_DYNAMIC+0x1d8>
    72008e41:	8b 38                	mov    (%rax),%edi
    72008e43:	83 ff ff             	cmp    $0xffffffffffffffff,%edi
    72008e46:	0f 84 19 16 00 00    	je     7200a465 <instrument_umbra_code+0x2195>
    72008e4c:	4c 8d 0d c5 05 01 00 	lea    0x105c5(%rip),%r9        # 72019418 <primes+0x2b8>
    72008e53:	4c 8d 05 ce f7 00 00 	lea    0xf7ce(%rip),%r8        # 72018628 <main+0x798>
    72008e5a:	48 8d 15 5f f7 00 00 	lea    0xf75f(%rip),%rdx        # 720185c0 <main+0x730>
    72008e61:	48 8d 35 68 f5 00 00 	lea    0xf568(%rip),%rsi        # 720183d0 <main+0x540>
    72008e68:	31 c0                	xor    %eax,%eax
    72008e6a:	b9 b3 04 00 00       	mov    $0x4b3,%ecx
    72008e6f:	e8 44 d3 ff ff       	callq  720061b8 <dr_fprintf@plt>
    72008e74:	e8 2f d8 ff ff       	callq  720066a8 <dr_abort@plt>
    72008e79:	0f b6 45 18          	movzbl 0x18(%rbp),%eax
    72008e7d:	48 8b 5c 24 30       	mov    0x30(%rsp),%rbx
    72008e82:	0f b6 c0             	movzbl %al,%eax
    72008e85:	83 e8 01             	sub    $0x1,%eax
    72008e88:	89 84 24 9c 00 00 00 	mov    %eax,0x9c(%rsp)
    72008e8f:	44 8b 43 58          	mov    0x58(%rbx),%r8d
    72008e93:	45 85 c0             	test   %r8d,%r8d
    72008e96:	0f 85 fa 0f 00 00    	jne    72009e96 <instrument_umbra_code+0x1bc6>
    72008e9c:	4c 89 ff             	mov    %r15,%rdi
    72008e9f:	be 03 00 00 00       	mov    $0x3,%esi
    72008ea4:	e8 2f d2 ff ff       	callq  720060d8 <instr_create_0dst_0src@plt>
    72008ea9:	48 8b bc 24 a8 00 00 	mov    0xa8(%rsp),%rdi
    72008eb0:	00 
    72008eb1:	be 92 00 00 00       	mov    $0x92,%esi
    72008eb6:	48 89 c3             	mov    %rax,%rbx
    72008eb9:	e8 8a cf ff ff       	callq  72005e48 <opnd_create_rel_addr@plt>
    72008ebe:	89 84 24 d0 00 00 00 	mov    %eax,0xd0(%rsp)
    72008ec5:	48 8b 84 24 d0 00 00 	mov    0xd0(%rsp),%rax
    72008ecc:	00 
    72008ecd:	48 89 df             	mov    %rbx,%rdi
    72008ed0:	48 89 94 24 d8 00 00 	mov    %rdx,0xd8(%rsp)
    72008ed7:	00 
    72008ed8:	48 89 94 24 48 01 00 	mov    %rdx,0x148(%rsp)
    72008edf:	00 
    72008ee0:	48 89 84 24 40 01 00 	mov    %rax,0x140(%rsp)
    72008ee7:	00 
    72008ee8:	e8 fb d6 ff ff       	callq  720065e8 <opnd_create_instr@plt>
    72008eed:	48 8b 8c 24 48 01 00 	mov    0x148(%rsp),%rcx
    72008ef4:	00 
    72008ef5:	48 89 d6             	mov    %rdx,%rsi
    72008ef8:	89 84 24 d0 00 00 00 	mov    %eax,0xd0(%rsp)
    72008eff:	48 89 94 24 d8 00 00 	mov    %rdx,0xd8(%rsp)
    72008f06:	00 
    72008f07:	4c 8b 84 24 d0 00 00 	mov    0xd0(%rsp),%r8
    72008f0e:	00 
    72008f0f:	49 89 f1             	mov    %rsi,%r9
    72008f12:	48 89 94 24 38 01 00 	mov    %rdx,0x138(%rsp)
    72008f19:	00 
    72008f1a:	8b 94 24 40 01 00 00 	mov    0x140(%rsp),%edx
    72008f21:	4c 89 ff             	mov    %r15,%rdi
    72008f24:	be 38 00 00 00       	mov    $0x38,%esi
    72008f29:	4c 89 84 24 30 01 00 	mov    %r8,0x130(%rsp)
    72008f30:	00 
    72008f31:	e8 22 da ff ff       	callq  72006958 <instr_create_1dst_1src@plt>
    72008f36:	48 8b 74 24 68       	mov    0x68(%rsp),%rsi
    72008f3b:	48 8b 7c 24 48       	mov    0x48(%rsp),%rdi
    72008f40:	48 89 c2             	mov    %rax,%rdx
    72008f43:	e8 80 d3 ff ff       	callq  720062c8 <instrlist_meta_preinsert@plt>
    72008f48:	48 63 84 24 9c 00 00 	movslq 0x9c(%rsp),%rax
    72008f4f:	00 
    72008f50:	49 8b bc c4 c0 01 00 	mov    0x1c0(%r12,%rax,8),%rdi
    72008f57:	00 
    72008f58:	e8 3b d8 ff ff       	callq  72006798 <opnd_create_pc@plt>
    72008f5d:	48 89 d1             	mov    %rdx,%rcx
    72008f60:	89 84 24 d0 00 00 00 	mov    %eax,0xd0(%rsp)
    72008f67:	48 89 94 24 d8 00 00 	mov    %rdx,0xd8(%rsp)
    72008f6e:	00 
    72008f6f:	48 8b 94 24 d0 00 00 	mov    0xd0(%rsp),%rdx
    72008f76:	00 
    72008f77:	4c 89 ff             	mov    %r15,%rdi
    72008f7a:	be 2e 00 00 00       	mov    $0x2e,%esi
    72008f7f:	48 89 8c 24 48 01 00 	mov    %rcx,0x148(%rsp)
    72008f86:	00 
    72008f87:	48 89 94 24 40 01 00 	mov    %rdx,0x140(%rsp)
    72008f8e:	00 
    72008f8f:	e8 d4 d5 ff ff       	callq  72006568 <instr_create_0dst_1src@plt>
    72008f94:	48 8b 74 24 68       	mov    0x68(%rsp),%rsi
    72008f99:	48 8b 7c 24 48       	mov    0x48(%rsp),%rdi
    72008f9e:	48 89 c2             	mov    %rax,%rdx
    72008fa1:	e8 22 d3 ff ff       	callq  720062c8 <instrlist_meta_preinsert@plt>
    72008fa6:	48 8b 74 24 68       	mov    0x68(%rsp),%rsi
    72008fab:	48 8b 7c 24 48       	mov    0x48(%rsp),%rdi
    72008fb0:	48 89 da             	mov    %rbx,%rdx
    72008fb3:	e8 10 d3 ff ff       	callq  720062c8 <instrlist_meta_preinsert@plt>
    72008fb8:	48 8b bc 24 a0 00 00 	mov    0xa0(%rsp),%rdi
    72008fbf:	00 
    72008fc0:	be 92 00 00 00       	mov    $0x92,%esi
    72008fc5:	48 83 c7 08          	add    $0x8,%rdi
    72008fc9:	e8 7a ce ff ff       	callq  72005e48 <opnd_create_rel_addr@plt>
    72008fce:	89 84 24 d0 00 00 00 	mov    %eax,0xd0(%rsp)
    72008fd5:	48 8b 84 24 d0 00 00 	mov    0xd0(%rsp),%rax
    72008fdc:	00 
    72008fdd:	48 89 94 24 d8 00 00 	mov    %rdx,0xd8(%rsp)
    72008fe4:	00 
    72008fe5:	48 89 94 24 48 01 00 	mov    %rdx,0x148(%rsp)
    72008fec:	00 
    72008fed:	48 89 84 24 40 01 00 	mov    %rax,0x140(%rsp)
    72008ff4:	00 
    72008ff5:	0f b6 7d 18          	movzbl 0x18(%rbp),%edi
    72008ff9:	e8 2a d6 ff ff       	callq  72006628 <opnd_create_reg@plt>
    72008ffe:	48 8b 8c 24 48 01 00 	mov    0x148(%rsp),%rcx
    72009005:	00 
    72009006:	48 89 d6             	mov    %rdx,%rsi
    72009009:	89 84 24 d0 00 00 00 	mov    %eax,0xd0(%rsp)
    72009010:	48 89 94 24 d8 00 00 	mov    %rdx,0xd8(%rsp)
    72009017:	00 
    72009018:	4c 8b 84 24 d0 00 00 	mov    0xd0(%rsp),%r8
    7200901f:	00 
    72009020:	49 89 f1             	mov    %rsi,%r9
    72009023:	48 89 94 24 38 01 00 	mov    %rdx,0x138(%rsp)
    7200902a:	00 
    7200902b:	8b 94 24 40 01 00 00 	mov    0x140(%rsp),%edx
    72009032:	4c 89 ff             	mov    %r15,%rdi
    72009035:	be 38 00 00 00       	mov    $0x38,%esi
    7200903a:	4c 89 84 24 30 01 00 	mov    %r8,0x130(%rsp)
    72009041:	00 
    72009042:	e8 11 d9 ff ff       	callq  72006958 <instr_create_1dst_1src@plt>
    72009047:	48 8b 74 24 68       	mov    0x68(%rsp),%rsi
    7200904c:	48 8b 7c 24 48       	mov    0x48(%rsp),%rdi
    72009051:	48 89 c2             	mov    %rax,%rdx
    72009054:	e8 6f d2 ff ff       	callq  720062c8 <instrlist_meta_preinsert@plt>
    72009059:	e9 e9 f5 ff ff       	jmpq   72008647 <instrument_umbra_code+0x377>
    7200905e:	66 90                	xchg   %ax,%ax
    72009060:	83 7d 48 01          	cmpl   $0x1,0x48(%rbp)
    72009064:	0f 85 87 f3 ff ff    	jne    720083f1 <instrument_umbra_code+0x121>
    7200906a:	48 8b 4c 24 40       	mov    0x40(%rsp),%rcx
    7200906f:	48 8b 54 24 48       	mov    0x48(%rsp),%rdx
    72009074:	4c 89 e6             	mov    %r12,%rsi
    72009077:	c7 45 48 00 00 00 00 	movl   $0x0,0x48(%rbp)
    7200907e:	4c 89 ff             	mov    %r15,%rdi
    72009081:	e8 02 d3 ff ff       	callq  72006388 <umbra_restore_eax_aflags@plt>
    72009086:	e9 66 f3 ff ff       	jmpq   720083f1 <instrument_umbra_code+0x121>
    7200908b:	0f 1f 44 00 00       	nopl   0x0(%rax,%rax,1)
    72009090:	80 7c 24 73 00       	cmpb   $0x0,0x73(%rsp)
    72009095:	0f 85 c1 fc ff ff    	jne    72008d5c <instrument_umbra_code+0xa8c>
    7200909b:	48 8b 03             	mov    (%rbx),%rax
    7200909e:	48 83 78 30 01       	cmpq   $0x1,0x30(%rax)
    720090a3:	48 89 c2             	mov    %rax,%rdx
    720090a6:	0f 87 b6 fc ff ff    	ja     72008d62 <instrument_umbra_code+0xa92>
    720090ac:	e9 96 f5 ff ff       	jmpq   72008647 <instrument_umbra_code+0x377>
    720090b1:	0f 1f 80 00 00 00 00 	nopl   0x0(%rax)
    720090b8:	b8 ff ff ff ff       	mov    $0xffffffff,%eax
    720090bd:	d3 e0                	shl    %cl,%eax
    720090bf:	48 98                	cltq   
    720090c1:	48 21 c3             	and    %rax,%rbx
    720090c4:	e9 ee f7 ff ff       	jmpq   720088b7 <instrument_umbra_code+0x5e7>
    720090c9:	0f 1f 80 00 00 00 00 	nopl   0x0(%rax)
    720090d0:	48 8b 54 24 48       	mov    0x48(%rsp),%rdx
    720090d5:	48 8b 4c 24 58       	mov    0x58(%rsp),%rcx
    720090da:	4c 89 e6             	mov    %r12,%rsi
    720090dd:	4c 89 ff             	mov    %r15,%rdi
    720090e0:	e8 d3 d4 ff ff       	callq  720065b8 <umbra_save_eax_aflags@plt>
    720090e5:	48 8b 54 24 30       	mov    0x30(%rsp),%rdx
    720090ea:	c7 45 44 00 00 00 00 	movl   $0x0,0x44(%rbp)
    720090f1:	8b 52 40             	mov    0x40(%rdx),%edx
    720090f4:	85 d2                	test   %edx,%edx
    720090f6:	74 0b                	je     72009103 <instrument_umbra_code+0xe33>
    720090f8:	8b 45 5c             	mov    0x5c(%rbp),%eax
    720090fb:	85 c0                	test   %eax,%eax
    720090fd:	0f 85 1e f7 ff ff    	jne    72008821 <instrument_umbra_code+0x551>
    72009103:	48 8b 4c 24 58       	mov    0x58(%rsp),%rcx
    72009108:	48 8b 54 24 48       	mov    0x48(%rsp),%rdx
    7200910d:	41 b8 01 00 00 00    	mov    $0x1,%r8d
    72009113:	4c 89 e6             	mov    %r12,%rsi
    72009116:	4c 89 ff             	mov    %r15,%rdi
    72009119:	e8 aa ce ff ff       	callq  72005fc8 <umbra_restore_reg@plt>
    7200911e:	e9 fe f6 ff ff       	jmpq   72008821 <instrument_umbra_code+0x551>
    72009123:	0f 1f 44 00 00       	nopl   0x0(%rax,%rax,1)
    72009128:	48 8b 4c 24 40       	mov    0x40(%rsp),%rcx
    7200912d:	48 8b 54 24 48       	mov    0x48(%rsp),%rdx
    72009132:	41 b8 01 00 00 00    	mov    $0x1,%r8d
    72009138:	c7 45 64 00 00 00 00 	movl   $0x0,0x64(%rbp)
    7200913f:	4c 89 e6             	mov    %r12,%rsi
    72009142:	4c 89 ff             	mov    %r15,%rdi
    72009145:	e8 7e ce ff ff       	callq  72005fc8 <umbra_restore_reg@plt>
    7200914a:	e9 b7 f2 ff ff       	jmpq   72008406 <instrument_umbra_code+0x136>
    7200914f:	90                   	nop
    72009150:	44 0f b6 85 18 01 00 	movzbl 0x118(%rbp),%r8d
    72009157:	00 
    72009158:	48 8b 4c 24 40       	mov    0x40(%rsp),%rcx
    7200915d:	4c 89 e6             	mov    %r12,%rsi
    72009160:	48 8b 54 24 48       	mov    0x48(%rsp),%rdx
    72009165:	c7 85 28 01 00 00 00 	movl   $0x0,0x128(%rbp)
    7200916c:	00 00 00 
    7200916f:	4c 89 ff             	mov    %r15,%rdi
    72009172:	e8 51 ce ff ff       	callq  72005fc8 <umbra_restore_reg@plt>
    72009177:	83 bd 44 01 00 00 01 	cmpl   $0x1,0x144(%rbp)
    7200917e:	0f 85 fe f1 ff ff    	jne    72008382 <instrument_umbra_code+0xb2>
    72009184:	0f 1f 40 00          	nopl   0x0(%rax)
    72009188:	44 0f b6 85 34 01 00 	movzbl 0x134(%rbp),%r8d
    7200918f:	00 
    72009190:	48 8b 4c 24 40       	mov    0x40(%rsp),%rcx
    72009195:	4c 89 e6             	mov    %r12,%rsi
    72009198:	48 8b 54 24 48       	mov    0x48(%rsp),%rdx
    7200919d:	c7 85 44 01 00 00 00 	movl   $0x0,0x144(%rbp)
    720091a4:	00 00 00 
    720091a7:	4c 89 ff             	mov    %r15,%rdi
    720091aa:	e8 19 ce ff ff       	callq  72005fc8 <umbra_restore_reg@plt>
    720091af:	83 bd 60 01 00 00 01 	cmpl   $0x1,0x160(%rbp)
    720091b6:	0f 85 d3 f1 ff ff    	jne    7200838f <instrument_umbra_code+0xbf>
    720091bc:	0f 1f 40 00          	nopl   0x0(%rax)
    720091c0:	44 0f b6 85 50 01 00 	movzbl 0x150(%rbp),%r8d
    720091c7:	00 
    720091c8:	48 8b 4c 24 40       	mov    0x40(%rsp),%rcx
    720091cd:	4c 89 e6             	mov    %r12,%rsi
    720091d0:	48 8b 54 24 48       	mov    0x48(%rsp),%rdx
    720091d5:	c7 85 60 01 00 00 00 	movl   $0x0,0x160(%rbp)
    720091dc:	00 00 00 
    720091df:	4c 89 ff             	mov    %r15,%rdi
    720091e2:	e8 e1 cd ff ff       	callq  72005fc8 <umbra_restore_reg@plt>
    720091e7:	83 bd 7c 01 00 00 01 	cmpl   $0x1,0x17c(%rbp)
    720091ee:	0f 85 a8 f1 ff ff    	jne    7200839c <instrument_umbra_code+0xcc>
    720091f4:	0f 1f 40 00          	nopl   0x0(%rax)
    720091f8:	44 0f b6 85 6c 01 00 	movzbl 0x16c(%rbp),%r8d
    720091ff:	00 
    72009200:	48 8b 4c 24 40       	mov    0x40(%rsp),%rcx
    72009205:	4c 89 e6             	mov    %r12,%rsi
    72009208:	48 8b 54 24 48       	mov    0x48(%rsp),%rdx
    7200920d:	c7 85 7c 01 00 00 00 	movl   $0x0,0x17c(%rbp)
    72009214:	00 00 00 
    72009217:	4c 89 ff             	mov    %r15,%rdi
    7200921a:	e8 a9 cd ff ff       	callq  72005fc8 <umbra_restore_reg@plt>
    7200921f:	83 bd 98 01 00 00 01 	cmpl   $0x1,0x198(%rbp)
    72009226:	0f 85 7d f1 ff ff    	jne    720083a9 <instrument_umbra_code+0xd9>
    7200922c:	0f 1f 40 00          	nopl   0x0(%rax)
    72009230:	44 0f b6 85 88 01 00 	movzbl 0x188(%rbp),%r8d
    72009237:	00 
    72009238:	48 8b 4c 24 40       	mov    0x40(%rsp),%rcx
    7200923d:	4c 89 e6             	mov    %r12,%rsi
    72009240:	48 8b 54 24 48       	mov    0x48(%rsp),%rdx
    72009245:	c7 85 98 01 00 00 00 	movl   $0x0,0x198(%rbp)
    7200924c:	00 00 00 
    7200924f:	4c 89 ff             	mov    %r15,%rdi
    72009252:	e8 71 cd ff ff       	callq  72005fc8 <umbra_restore_reg@plt>
    72009257:	83 bd b4 01 00 00 01 	cmpl   $0x1,0x1b4(%rbp)
    7200925e:	0f 85 52 f1 ff ff    	jne    720083b6 <instrument_umbra_code+0xe6>
    72009264:	0f 1f 40 00          	nopl   0x0(%rax)
    72009268:	44 0f b6 85 a4 01 00 	movzbl 0x1a4(%rbp),%r8d
    7200926f:	00 
    72009270:	48 8b 4c 24 40       	mov    0x40(%rsp),%rcx
    72009275:	4c 89 e6             	mov    %r12,%rsi
    72009278:	48 8b 54 24 48       	mov    0x48(%rsp),%rdx
    7200927d:	c7 85 b4 01 00 00 00 	movl   $0x0,0x1b4(%rbp)
    72009284:	00 00 00 
    72009287:	4c 89 ff             	mov    %r15,%rdi
    7200928a:	e8 39 cd ff ff       	callq  72005fc8 <umbra_restore_reg@plt>
    7200928f:	83 bd d0 01 00 00 01 	cmpl   $0x1,0x1d0(%rbp)
    72009296:	0f 85 27 f1 ff ff    	jne    720083c3 <instrument_umbra_code+0xf3>
    7200929c:	0f 1f 40 00          	nopl   0x0(%rax)
    720092a0:	44 0f b6 85 c0 01 00 	movzbl 0x1c0(%rbp),%r8d
    720092a7:	00 
    720092a8:	48 8b 4c 24 40       	mov    0x40(%rsp),%rcx
    720092ad:	4c 89 e6             	mov    %r12,%rsi
    720092b0:	48 8b 54 24 48       	mov    0x48(%rsp),%rdx
    720092b5:	c7 85 d0 01 00 00 00 	movl   $0x0,0x1d0(%rbp)
    720092bc:	00 00 00 
    720092bf:	4c 89 ff             	mov    %r15,%rdi
    720092c2:	e8 01 cd ff ff       	callq  72005fc8 <umbra_restore_reg@plt>
    720092c7:	83 bd ec 01 00 00 01 	cmpl   $0x1,0x1ec(%rbp)
    720092ce:	0f 85 fc f0 ff ff    	jne    720083d0 <instrument_umbra_code+0x100>
    720092d4:	0f 1f 40 00          	nopl   0x0(%rax)
    720092d8:	44 0f b6 85 dc 01 00 	movzbl 0x1dc(%rbp),%r8d
    720092df:	00 
    720092e0:	48 8b 4c 24 40       	mov    0x40(%rsp),%rcx
    720092e5:	4c 89 e6             	mov    %r12,%rsi
    720092e8:	48 8b 54 24 48       	mov    0x48(%rsp),%rdx
    720092ed:	c7 85 ec 01 00 00 00 	movl   $0x0,0x1ec(%rbp)
    720092f4:	00 00 00 
    720092f7:	4c 89 ff             	mov    %r15,%rdi
    720092fa:	e8 c9 cc ff ff       	callq  72005fc8 <umbra_restore_reg@plt>
    720092ff:	83 bd 08 02 00 00 01 	cmpl   $0x1,0x208(%rbp)
    72009306:	0f 85 d1 f0 ff ff    	jne    720083dd <instrument_umbra_code+0x10d>
    7200930c:	0f 1f 40 00          	nopl   0x0(%rax)
    72009310:	44 0f b6 85 f8 01 00 	movzbl 0x1f8(%rbp),%r8d
    72009317:	00 
    72009318:	48 8b 4c 24 40       	mov    0x40(%rsp),%rcx
    7200931d:	4c 89 e6             	mov    %r12,%rsi
    72009320:	48 8b 54 24 48       	mov    0x48(%rsp),%rdx
    72009325:	c7 85 08 02 00 00 00 	movl   $0x0,0x208(%rbp)
    7200932c:	00 00 00 
    7200932f:	4c 89 ff             	mov    %r15,%rdi
    72009332:	e8 91 cc ff ff       	callq  72005fc8 <umbra_restore_reg@plt>
    72009337:	83 7d 68 01          	cmpl   $0x1,0x68(%rbp)
    7200933b:	0f 85 a6 f0 ff ff    	jne    720083e7 <instrument_umbra_code+0x117>
    72009341:	0f 1f 80 00 00 00 00 	nopl   0x0(%rax)
    72009348:	48 8b 4c 24 40       	mov    0x40(%rsp),%rcx
    7200934d:	48 8b 54 24 48       	mov    0x48(%rsp),%rdx
    72009352:	41 b8 01 00 00 00    	mov    $0x1,%r8d
    72009358:	c7 45 68 00 00 00 00 	movl   $0x0,0x68(%rbp)
    7200935f:	4c 89 e6             	mov    %r12,%rsi
    72009362:	4c 89 ff             	mov    %r15,%rdi
    72009365:	e8 fe cb ff ff       	callq  72005f68 <umbra_save_reg@plt>
    7200936a:	e9 78 f0 ff ff       	jmpq   720083e7 <instrument_umbra_code+0x117>
    7200936f:	90                   	nop
    72009370:	44 0f b6 85 50 01 00 	movzbl 0x150(%rbp),%r8d
    72009377:	00 
    72009378:	48 8b 4c 24 58       	mov    0x58(%rsp),%rcx
    7200937d:	4c 89 e6             	mov    %r12,%rsi
    72009380:	48 8b 54 24 48       	mov    0x48(%rsp),%rdx
    72009385:	c7 85 64 01 00 00 00 	movl   $0x0,0x164(%rbp)
    7200938c:	00 00 00 
    7200938f:	4c 89 ff             	mov    %r15,%rdi
    72009392:	c7 85 5c 01 00 00 00 	movl   $0x0,0x15c(%rbp)
    72009399:	00 00 00 
    7200939c:	e8 c7 cb ff ff       	callq  72005f68 <umbra_save_reg@plt>
    720093a1:	83 45 10 01          	addl   $0x1,0x10(%rbp)
    720093a5:	83 bd 80 01 00 00 01 	cmpl   $0x1,0x180(%rbp)
    720093ac:	0f 85 30 f3 ff ff    	jne    720086e2 <instrument_umbra_code+0x412>
    720093b2:	66 0f 1f 44 00 00    	nopw   0x0(%rax,%rax,1)
    720093b8:	44 0f b6 85 6c 01 00 	movzbl 0x16c(%rbp),%r8d
    720093bf:	00 
    720093c0:	48 8b 4c 24 58       	mov    0x58(%rsp),%rcx
    720093c5:	4c 89 e6             	mov    %r12,%rsi
    720093c8:	48 8b 54 24 48       	mov    0x48(%rsp),%rdx
    720093cd:	c7 85 80 01 00 00 00 	movl   $0x0,0x180(%rbp)
    720093d4:	00 00 00 
    720093d7:	4c 89 ff             	mov    %r15,%rdi
    720093da:	c7 85 78 01 00 00 00 	movl   $0x0,0x178(%rbp)
    720093e1:	00 00 00 
    720093e4:	e8 7f cb ff ff       	callq  72005f68 <umbra_save_reg@plt>
    720093e9:	83 45 10 01          	addl   $0x1,0x10(%rbp)
    720093ed:	83 bd 9c 01 00 00 01 	cmpl   $0x1,0x19c(%rbp)
    720093f4:	0f 85 f5 f2 ff ff    	jne    720086ef <instrument_umbra_code+0x41f>
    720093fa:	66 0f 1f 44 00 00    	nopw   0x0(%rax,%rax,1)
    72009400:	44 0f b6 85 88 01 00 	movzbl 0x188(%rbp),%r8d
    72009407:	00 
    72009408:	48 8b 4c 24 58       	mov    0x58(%rsp),%rcx
    7200940d:	4c 89 e6             	mov    %r12,%rsi
    72009410:	48 8b 54 24 48       	mov    0x48(%rsp),%rdx
    72009415:	c7 85 9c 01 00 00 00 	movl   $0x0,0x19c(%rbp)
    7200941c:	00 00 00 
    7200941f:	4c 89 ff             	mov    %r15,%rdi
    72009422:	c7 85 94 01 00 00 00 	movl   $0x0,0x194(%rbp)
    72009429:	00 00 00 
    7200942c:	e8 37 cb ff ff       	callq  72005f68 <umbra_save_reg@plt>
    72009431:	83 45 10 01          	addl   $0x1,0x10(%rbp)
    72009435:	83 bd b8 01 00 00 01 	cmpl   $0x1,0x1b8(%rbp)
    7200943c:	0f 85 ba f2 ff ff    	jne    720086fc <instrument_umbra_code+0x42c>
    72009442:	66 0f 1f 44 00 00    	nopw   0x0(%rax,%rax,1)
    72009448:	44 0f b6 85 a4 01 00 	movzbl 0x1a4(%rbp),%r8d
    7200944f:	00 
    72009450:	48 8b 4c 24 58       	mov    0x58(%rsp),%rcx
    72009455:	4c 89 e6             	mov    %r12,%rsi
    72009458:	48 8b 54 24 48       	mov    0x48(%rsp),%rdx
    7200945d:	c7 85 b8 01 00 00 00 	movl   $0x0,0x1b8(%rbp)
    72009464:	00 00 00 
    72009467:	4c 89 ff             	mov    %r15,%rdi
    7200946a:	c7 85 b0 01 00 00 00 	movl   $0x0,0x1b0(%rbp)
    72009471:	00 00 00 
    72009474:	e8 ef ca ff ff       	callq  72005f68 <umbra_save_reg@plt>
    72009479:	83 45 10 01          	addl   $0x1,0x10(%rbp)
    7200947d:	83 bd d4 01 00 00 01 	cmpl   $0x1,0x1d4(%rbp)
    72009484:	0f 85 7f f2 ff ff    	jne    72008709 <instrument_umbra_code+0x439>
    7200948a:	66 0f 1f 44 00 00    	nopw   0x0(%rax,%rax,1)
    72009490:	44 0f b6 85 c0 01 00 	movzbl 0x1c0(%rbp),%r8d
    72009497:	00 
    72009498:	48 8b 4c 24 58       	mov    0x58(%rsp),%rcx
    7200949d:	4c 89 e6             	mov    %r12,%rsi
    720094a0:	48 8b 54 24 48       	mov    0x48(%rsp),%rdx
    720094a5:	c7 85 d4 01 00 00 00 	movl   $0x0,0x1d4(%rbp)
    720094ac:	00 00 00 
    720094af:	4c 89 ff             	mov    %r15,%rdi
    720094b2:	c7 85 cc 01 00 00 00 	movl   $0x0,0x1cc(%rbp)
    720094b9:	00 00 00 
    720094bc:	e8 a7 ca ff ff       	callq  72005f68 <umbra_save_reg@plt>
    720094c1:	83 45 10 01          	addl   $0x1,0x10(%rbp)
    720094c5:	83 bd f0 01 00 00 01 	cmpl   $0x1,0x1f0(%rbp)
    720094cc:	0f 85 44 f2 ff ff    	jne    72008716 <instrument_umbra_code+0x446>
    720094d2:	66 0f 1f 44 00 00    	nopw   0x0(%rax,%rax,1)
    720094d8:	44 0f b6 85 dc 01 00 	movzbl 0x1dc(%rbp),%r8d
    720094df:	00 
    720094e0:	48 8b 4c 24 58       	mov    0x58(%rsp),%rcx
    720094e5:	4c 89 e6             	mov    %r12,%rsi
    720094e8:	48 8b 54 24 48       	mov    0x48(%rsp),%rdx
    720094ed:	c7 85 f0 01 00 00 00 	movl   $0x0,0x1f0(%rbp)
    720094f4:	00 00 00 
    720094f7:	4c 89 ff             	mov    %r15,%rdi
    720094fa:	c7 85 e8 01 00 00 00 	movl   $0x0,0x1e8(%rbp)
    72009501:	00 00 00 
    72009504:	e8 5f ca ff ff       	callq  72005f68 <umbra_save_reg@plt>
    72009509:	83 45 10 01          	addl   $0x1,0x10(%rbp)
    7200950d:	83 bd 0c 02 00 00 01 	cmpl   $0x1,0x20c(%rbp)
    72009514:	0f 85 09 f2 ff ff    	jne    72008723 <instrument_umbra_code+0x453>
    7200951a:	66 0f 1f 44 00 00    	nopw   0x0(%rax,%rax,1)
    72009520:	44 0f b6 85 f8 01 00 	movzbl 0x1f8(%rbp),%r8d
    72009527:	00 
    72009528:	48 8b 4c 24 58       	mov    0x58(%rsp),%rcx
    7200952d:	4c 89 e6             	mov    %r12,%rsi
    72009530:	48 8b 54 24 48       	mov    0x48(%rsp),%rdx
    72009535:	c7 85 0c 02 00 00 00 	movl   $0x0,0x20c(%rbp)
    7200953c:	00 00 00 
    7200953f:	4c 89 ff             	mov    %r15,%rdi
    72009542:	c7 85 04 02 00 00 00 	movl   $0x0,0x204(%rbp)
    72009549:	00 00 00 
    7200954c:	e8 17 ca ff ff       	callq  72005f68 <umbra_save_reg@plt>
    72009551:	83 45 10 01          	addl   $0x1,0x10(%rbp)
    72009555:	e9 c9 f1 ff ff       	jmpq   72008723 <instrument_umbra_code+0x453>
    7200955a:	66 0f 1f 44 00 00    	nopw   0x0(%rax,%rax,1)
    72009560:	44 0f b6 45 70       	movzbl 0x70(%rbp),%r8d
    72009565:	48 8b 4c 24 58       	mov    0x58(%rsp),%rcx
    7200956a:	4c 89 e6             	mov    %r12,%rsi
    7200956d:	48 8b 54 24 48       	mov    0x48(%rsp),%rdx
    72009572:	c7 85 84 00 00 00 00 	movl   $0x0,0x84(%rbp)
    72009579:	00 00 00 
    7200957c:	4c 89 ff             	mov    %r15,%rdi
    7200957f:	c7 45 7c 00 00 00 00 	movl   $0x0,0x7c(%rbp)
    72009586:	e8 dd c9 ff ff       	callq  72005f68 <umbra_save_reg@plt>
    7200958b:	83 45 10 01          	addl   $0x1,0x10(%rbp)
    7200958f:	83 bd a0 00 00 00 01 	cmpl   $0x1,0xa0(%rbp)
    72009596:	0f 85 de f0 ff ff    	jne    7200867a <instrument_umbra_code+0x3aa>
    7200959c:	0f 1f 40 00          	nopl   0x0(%rax)
    720095a0:	44 0f b6 85 8c 00 00 	movzbl 0x8c(%rbp),%r8d
    720095a7:	00 
    720095a8:	48 8b 4c 24 58       	mov    0x58(%rsp),%rcx
    720095ad:	4c 89 e6             	mov    %r12,%rsi
    720095b0:	48 8b 54 24 48       	mov    0x48(%rsp),%rdx
    720095b5:	c7 85 a0 00 00 00 00 	movl   $0x0,0xa0(%rbp)
    720095bc:	00 00 00 
    720095bf:	4c 89 ff             	mov    %r15,%rdi
    720095c2:	c7 85 98 00 00 00 00 	movl   $0x0,0x98(%rbp)
    720095c9:	00 00 00 
    720095cc:	e8 97 c9 ff ff       	callq  72005f68 <umbra_save_reg@plt>
    720095d1:	83 45 10 01          	addl   $0x1,0x10(%rbp)
    720095d5:	83 bd bc 00 00 00 01 	cmpl   $0x1,0xbc(%rbp)
    720095dc:	0f 85 a5 f0 ff ff    	jne    72008687 <instrument_umbra_code+0x3b7>
    720095e2:	66 0f 1f 44 00 00    	nopw   0x0(%rax,%rax,1)
    720095e8:	44 0f b6 85 a8 00 00 	movzbl 0xa8(%rbp),%r8d
    720095ef:	00 
    720095f0:	48 8b 4c 24 58       	mov    0x58(%rsp),%rcx
    720095f5:	4c 89 e6             	mov    %r12,%rsi
    720095f8:	48 8b 54 24 48       	mov    0x48(%rsp),%rdx
    720095fd:	c7 85 bc 00 00 00 00 	movl   $0x0,0xbc(%rbp)
    72009604:	00 00 00 
    72009607:	4c 89 ff             	mov    %r15,%rdi
    7200960a:	c7 85 b4 00 00 00 00 	movl   $0x0,0xb4(%rbp)
    72009611:	00 00 00 
    72009614:	e8 4f c9 ff ff       	callq  72005f68 <umbra_save_reg@plt>
    72009619:	83 45 10 01          	addl   $0x1,0x10(%rbp)
    7200961d:	83 bd d8 00 00 00 01 	cmpl   $0x1,0xd8(%rbp)
    72009624:	0f 85 6a f0 ff ff    	jne    72008694 <instrument_umbra_code+0x3c4>
    7200962a:	66 0f 1f 44 00 00    	nopw   0x0(%rax,%rax,1)
    72009630:	44 0f b6 85 c4 00 00 	movzbl 0xc4(%rbp),%r8d
    72009637:	00 
    72009638:	48 8b 4c 24 58       	mov    0x58(%rsp),%rcx
    7200963d:	4c 89 e6             	mov    %r12,%rsi
    72009640:	48 8b 54 24 48       	mov    0x48(%rsp),%rdx
    72009645:	c7 85 d8 00 00 00 00 	movl   $0x0,0xd8(%rbp)
    7200964c:	00 00 00 
    7200964f:	4c 89 ff             	mov    %r15,%rdi
    72009652:	c7 85 d0 00 00 00 00 	movl   $0x0,0xd0(%rbp)
    72009659:	00 00 00 
    7200965c:	e8 07 c9 ff ff       	callq  72005f68 <umbra_save_reg@plt>
    72009661:	83 45 10 01          	addl   $0x1,0x10(%rbp)
    72009665:	83 bd f4 00 00 00 01 	cmpl   $0x1,0xf4(%rbp)
    7200966c:	0f 85 2f f0 ff ff    	jne    720086a1 <instrument_umbra_code+0x3d1>
    72009672:	66 0f 1f 44 00 00    	nopw   0x0(%rax,%rax,1)
    72009678:	44 0f b6 85 e0 00 00 	movzbl 0xe0(%rbp),%r8d
    7200967f:	00 
    72009680:	48 8b 4c 24 58       	mov    0x58(%rsp),%rcx
    72009685:	4c 89 e6             	mov    %r12,%rsi
    72009688:	48 8b 54 24 48       	mov    0x48(%rsp),%rdx
    7200968d:	c7 85 f4 00 00 00 00 	movl   $0x0,0xf4(%rbp)
    72009694:	00 00 00 
    72009697:	4c 89 ff             	mov    %r15,%rdi
    7200969a:	c7 85 ec 00 00 00 00 	movl   $0x0,0xec(%rbp)
    720096a1:	00 00 00 
    720096a4:	e8 bf c8 ff ff       	callq  72005f68 <umbra_save_reg@plt>
    720096a9:	83 45 10 01          	addl   $0x1,0x10(%rbp)
    720096ad:	83 bd 10 01 00 00 01 	cmpl   $0x1,0x110(%rbp)
    720096b4:	0f 85 f4 ef ff ff    	jne    720086ae <instrument_umbra_code+0x3de>
    720096ba:	66 0f 1f 44 00 00    	nopw   0x0(%rax,%rax,1)
    720096c0:	44 0f b6 85 fc 00 00 	movzbl 0xfc(%rbp),%r8d
    720096c7:	00 
    720096c8:	48 8b 4c 24 58       	mov    0x58(%rsp),%rcx
    720096cd:	4c 89 e6             	mov    %r12,%rsi
    720096d0:	48 8b 54 24 48       	mov    0x48(%rsp),%rdx
    720096d5:	c7 85 10 01 00 00 00 	movl   $0x0,0x110(%rbp)
    720096dc:	00 00 00 
    720096df:	4c 89 ff             	mov    %r15,%rdi
    720096e2:	c7 85 08 01 00 00 00 	movl   $0x0,0x108(%rbp)
    720096e9:	00 00 00 
    720096ec:	e8 77 c8 ff ff       	callq  72005f68 <umbra_save_reg@plt>
    720096f1:	83 45 10 01          	addl   $0x1,0x10(%rbp)
    720096f5:	83 bd 2c 01 00 00 01 	cmpl   $0x1,0x12c(%rbp)
    720096fc:	0f 85 b9 ef ff ff    	jne    720086bb <instrument_umbra_code+0x3eb>
    72009702:	66 0f 1f 44 00 00    	nopw   0x0(%rax,%rax,1)
    72009708:	44 0f b6 85 18 01 00 	movzbl 0x118(%rbp),%r8d
    7200970f:	00 
    72009710:	48 8b 4c 24 58       	mov    0x58(%rsp),%rcx
    72009715:	4c 89 e6             	mov    %r12,%rsi
    72009718:	48 8b 54 24 48       	mov    0x48(%rsp),%rdx
    7200971d:	c7 85 2c 01 00 00 00 	movl   $0x0,0x12c(%rbp)
    72009724:	00 00 00 
    72009727:	4c 89 ff             	mov    %r15,%rdi
    7200972a:	c7 85 24 01 00 00 00 	movl   $0x0,0x124(%rbp)
    72009731:	00 00 00 
    72009734:	e8 2f c8 ff ff       	callq  72005f68 <umbra_save_reg@plt>
    72009739:	83 45 10 01          	addl   $0x1,0x10(%rbp)
    7200973d:	83 bd 48 01 00 00 01 	cmpl   $0x1,0x148(%rbp)
    72009744:	0f 85 7e ef ff ff    	jne    720086c8 <instrument_umbra_code+0x3f8>
    7200974a:	66 0f 1f 44 00 00    	nopw   0x0(%rax,%rax,1)
    72009750:	44 0f b6 85 34 01 00 	movzbl 0x134(%rbp),%r8d
    72009757:	00 
    72009758:	48 8b 4c 24 58       	mov    0x58(%rsp),%rcx
    7200975d:	4c 89 e6             	mov    %r12,%rsi
    72009760:	48 8b 54 24 48       	mov    0x48(%rsp),%rdx
    72009765:	c7 85 48 01 00 00 00 	movl   $0x0,0x148(%rbp)
    7200976c:	00 00 00 
    7200976f:	4c 89 ff             	mov    %r15,%rdi
    72009772:	c7 85 40 01 00 00 00 	movl   $0x0,0x140(%rbp)
    72009779:	00 00 00 
    7200977c:	e8 e7 c7 ff ff       	callq  72005f68 <umbra_save_reg@plt>
    72009781:	83 45 10 01          	addl   $0x1,0x10(%rbp)
    72009785:	e9 3e ef ff ff       	jmpq   720086c8 <instrument_umbra_code+0x3f8>
    7200978a:	66 0f 1f 44 00 00    	nopw   0x0(%rax,%rax,1)
    72009790:	44 0f b6 45 70       	movzbl 0x70(%rbp),%r8d
    72009795:	48 8b 4c 24 40       	mov    0x40(%rsp),%rcx
    7200979a:	4c 89 e6             	mov    %r12,%rsi
    7200979d:	48 8b 54 24 48       	mov    0x48(%rsp),%rdx
    720097a2:	c7 85 80 00 00 00 00 	movl   $0x0,0x80(%rbp)
    720097a9:	00 00 00 
    720097ac:	4c 89 ff             	mov    %r15,%rdi
    720097af:	e8 14 c8 ff ff       	callq  72005fc8 <umbra_restore_reg@plt>
    720097b4:	83 bd 9c 00 00 00 01 	cmpl   $0x1,0x9c(%rbp)
    720097bb:	0f 85 73 eb ff ff    	jne    72008334 <instrument_umbra_code+0x64>
    720097c1:	0f 1f 80 00 00 00 00 	nopl   0x0(%rax)
    720097c8:	44 0f b6 85 8c 00 00 	movzbl 0x8c(%rbp),%r8d
    720097cf:	00 
    720097d0:	48 8b 4c 24 40       	mov    0x40(%rsp),%rcx
    720097d5:	4c 89 e6             	mov    %r12,%rsi
    720097d8:	48 8b 54 24 48       	mov    0x48(%rsp),%rdx
    720097dd:	c7 85 9c 00 00 00 00 	movl   $0x0,0x9c(%rbp)
    720097e4:	00 00 00 
    720097e7:	4c 89 ff             	mov    %r15,%rdi
    720097ea:	e8 d9 c7 ff ff       	callq  72005fc8 <umbra_restore_reg@plt>
    720097ef:	83 bd b8 00 00 00 01 	cmpl   $0x1,0xb8(%rbp)
    720097f6:	0f 85 45 eb ff ff    	jne    72008341 <instrument_umbra_code+0x71>
    720097fc:	0f 1f 40 00          	nopl   0x0(%rax)
    72009800:	44 0f b6 85 a8 00 00 	movzbl 0xa8(%rbp),%r8d
    72009807:	00 
    72009808:	48 8b 4c 24 40       	mov    0x40(%rsp),%rcx
    7200980d:	4c 89 e6             	mov    %r12,%rsi
    72009810:	48 8b 54 24 48       	mov    0x48(%rsp),%rdx
    72009815:	c7 85 b8 00 00 00 00 	movl   $0x0,0xb8(%rbp)
    7200981c:	00 00 00 
    7200981f:	4c 89 ff             	mov    %r15,%rdi
    72009822:	e8 a1 c7 ff ff       	callq  72005fc8 <umbra_restore_reg@plt>
    72009827:	83 bd d4 00 00 00 01 	cmpl   $0x1,0xd4(%rbp)
    7200982e:	0f 85 1a eb ff ff    	jne    7200834e <instrument_umbra_code+0x7e>
    72009834:	0f 1f 40 00          	nopl   0x0(%rax)
    72009838:	44 0f b6 85 c4 00 00 	movzbl 0xc4(%rbp),%r8d
    7200983f:	00 
    72009840:	48 8b 4c 24 40       	mov    0x40(%rsp),%rcx
    72009845:	4c 89 e6             	mov    %r12,%rsi
    72009848:	48 8b 54 24 48       	mov    0x48(%rsp),%rdx
    7200984d:	c7 85 d4 00 00 00 00 	movl   $0x0,0xd4(%rbp)
    72009854:	00 00 00 
    72009857:	4c 89 ff             	mov    %r15,%rdi
    7200985a:	e8 69 c7 ff ff       	callq  72005fc8 <umbra_restore_reg@plt>
    7200985f:	83 bd f0 00 00 00 01 	cmpl   $0x1,0xf0(%rbp)
    72009866:	0f 85 ef ea ff ff    	jne    7200835b <instrument_umbra_code+0x8b>
    7200986c:	0f 1f 40 00          	nopl   0x0(%rax)
    72009870:	44 0f b6 85 e0 00 00 	movzbl 0xe0(%rbp),%r8d
    72009877:	00 
    72009878:	48 8b 4c 24 40       	mov    0x40(%rsp),%rcx
    7200987d:	4c 89 e6             	mov    %r12,%rsi
    72009880:	48 8b 54 24 48       	mov    0x48(%rsp),%rdx
    72009885:	c7 85 f0 00 00 00 00 	movl   $0x0,0xf0(%rbp)
    7200988c:	00 00 00 
    7200988f:	4c 89 ff             	mov    %r15,%rdi
    72009892:	e8 31 c7 ff ff       	callq  72005fc8 <umbra_restore_reg@plt>
    72009897:	83 bd 0c 01 00 00 01 	cmpl   $0x1,0x10c(%rbp)
    7200989e:	0f 85 c4 ea ff ff    	jne    72008368 <instrument_umbra_code+0x98>
    720098a4:	0f 1f 40 00          	nopl   0x0(%rax)
    720098a8:	44 0f b6 85 fc 00 00 	movzbl 0xfc(%rbp),%r8d
    720098af:	00 
    720098b0:	48 8b 4c 24 40       	mov    0x40(%rsp),%rcx
    720098b5:	4c 89 e6             	mov    %r12,%rsi
    720098b8:	48 8b 54 24 48       	mov    0x48(%rsp),%rdx
    720098bd:	c7 85 0c 01 00 00 00 	movl   $0x0,0x10c(%rbp)
    720098c4:	00 00 00 
    720098c7:	4c 89 ff             	mov    %r15,%rdi
    720098ca:	e8 f9 c6 ff ff       	callq  72005fc8 <umbra_restore_reg@plt>
    720098cf:	e9 94 ea ff ff       	jmpq   72008368 <instrument_umbra_code+0x98>
    720098d4:	0f 1f 40 00          	nopl   0x0(%rax)
    720098d8:	c7 45 2c 00 00 00 00 	movl   $0x0,0x2c(%rbp)
    720098df:	bf 31 00 00 00       	mov    $0x31,%edi
    720098e4:	e8 3f cd ff ff       	callq  72006628 <opnd_create_reg@plt>
    720098e9:	89 84 24 d0 00 00 00 	mov    %eax,0xd0(%rsp)
    720098f0:	48 8b 84 24 d0 00 00 	mov    0xd0(%rsp),%rax
    720098f7:	00 
    720098f8:	be 8e 00 00 00       	mov    $0x8e,%esi
    720098fd:	bf 7f 00 00 00       	mov    $0x7f,%edi
    72009902:	48 89 94 24 d8 00 00 	mov    %rdx,0xd8(%rsp)
    72009909:	00 
    7200990a:	48 89 94 24 38 01 00 	mov    %rdx,0x138(%rsp)
    72009911:	00 
    72009912:	48 89 84 24 30 01 00 	mov    %rax,0x130(%rsp)
    72009919:	00 
    7200991a:	e8 a9 c4 ff ff       	callq  72005dc8 <opnd_create_immed_int@plt>
    7200991f:	48 8b 8c 24 38 01 00 	mov    0x138(%rsp),%rcx
    72009926:	00 
    72009927:	89 84 24 d0 00 00 00 	mov    %eax,0xd0(%rsp)
    7200992e:	48 89 d6             	mov    %rdx,%rsi
    72009931:	4c 8b 84 24 d0 00 00 	mov    0xd0(%rsp),%r8
    72009938:	00 
    72009939:	48 89 94 24 d8 00 00 	mov    %rdx,0xd8(%rsp)
    72009940:	00 
    72009941:	49 89 f1             	mov    %rsi,%r9
    72009944:	48 89 94 24 48 01 00 	mov    %rdx,0x148(%rsp)
    7200994b:	00 
    7200994c:	48 8b 84 24 30 01 00 	mov    0x130(%rsp),%rax
    72009953:	00 
    72009954:	4c 89 ff             	mov    %r15,%rdi
    72009957:	8b 94 24 30 01 00 00 	mov    0x130(%rsp),%edx
    7200995e:	be 04 00 00 00       	mov    $0x4,%esi
    72009963:	48 89 4c 24 08       	mov    %rcx,0x8(%rsp)
    72009968:	4c 89 84 24 40 01 00 	mov    %r8,0x140(%rsp)
    7200996f:	00 
    72009970:	48 89 04 24          	mov    %rax,(%rsp)
    72009974:	e8 6f ca ff ff       	callq  720063e8 <instr_create_1dst_2src@plt>
    72009979:	48 8b 74 24 40       	mov    0x40(%rsp),%rsi
    7200997e:	48 8b 7c 24 48       	mov    0x48(%rsp),%rdi
    72009983:	48 89 c2             	mov    %rax,%rdx
    72009986:	e8 3d c9 ff ff       	callq  720062c8 <instrlist_meta_preinsert@plt>
    7200998b:	bf 35 00 00 00       	mov    $0x35,%edi
    72009990:	e8 93 cc ff ff       	callq  72006628 <opnd_create_reg@plt>
    72009995:	48 89 d1             	mov    %rdx,%rcx
    72009998:	89 84 24 d0 00 00 00 	mov    %eax,0xd0(%rsp)
    7200999f:	48 89 94 24 d8 00 00 	mov    %rdx,0xd8(%rsp)
    720099a6:	00 
    720099a7:	48 8b 94 24 d0 00 00 	mov    0xd0(%rsp),%rdx
    720099ae:	00 
    720099af:	4c 89 ff             	mov    %r15,%rdi
    720099b2:	be 44 00 00 00       	mov    $0x44,%esi
    720099b7:	48 89 8c 24 58 01 00 	mov    %rcx,0x158(%rsp)
    720099be:	00 
    720099bf:	48 89 94 24 50 01 00 	mov    %rdx,0x150(%rsp)
    720099c6:	00 
    720099c7:	e8 9c cb ff ff       	callq  72006568 <instr_create_0dst_1src@plt>
    720099cc:	48 8b 74 24 40       	mov    0x40(%rsp),%rsi
    720099d1:	48 8b 7c 24 48       	mov    0x48(%rsp),%rdi
    720099d6:	48 89 c2             	mov    %rax,%rdx
    720099d9:	e8 ea c8 ff ff       	callq  720062c8 <instrlist_meta_preinsert@plt>
    720099de:	e9 18 ea ff ff       	jmpq   720083fb <instrument_umbra_code+0x12b>
    720099e3:	0f 1f 44 00 00       	nopl   0x0(%rax,%rax,1)
    720099e8:	48 8b 03             	mov    (%rbx),%rax
    720099eb:	8b 78 20             	mov    0x20(%rax),%edi
    720099ee:	48 8b 70 28          	mov    0x28(%rax),%rsi
    720099f2:	e8 31 ca ff ff       	callq  72006428 <opnd_is_abs_addr@plt>
    720099f7:	85 c0                	test   %eax,%eax
    720099f9:	0f 85 8c f3 ff ff    	jne    72008d8b <instrument_umbra_code+0xabb>
    720099ff:	0f b6 55 18          	movzbl 0x18(%rbp),%edx
    72009a03:	4c 8b 44 24 68       	mov    0x68(%rsp),%r8
    72009a08:	48 89 de             	mov    %rbx,%rsi
    72009a0b:	48 8b 4c 24 48       	mov    0x48(%rsp),%rcx
    72009a10:	4c 89 ff             	mov    %r15,%rdi
    72009a13:	e8 88 e6 ff ff       	callq  720080a0 <preinsert_calculate_app_addr>
    72009a18:	48 8b 44 24 30       	mov    0x30(%rsp),%rax
    72009a1d:	44 8b 58 34          	mov    0x34(%rax),%r11d
    72009a21:	45 85 db             	test   %r11d,%r11d
    72009a24:	0f 84 61 f3 ff ff    	je     72008d8b <instrument_umbra_code+0xabb>
    72009a2a:	83 78 50 01          	cmpl   $0x1,0x50(%rax)
    72009a2e:	0f 84 43 0a 00 00    	je     7200a477 <instrument_umbra_code+0x21a7>
    72009a34:	0f b6 7d 18          	movzbl 0x18(%rbp),%edi
    72009a38:	e8 eb cb ff ff       	callq  72006628 <opnd_create_reg@plt>
    72009a3d:	48 89 94 24 d8 00 00 	mov    %rdx,0xd8(%rsp)
    72009a44:	00 
    72009a45:	48 89 94 24 38 01 00 	mov    %rdx,0x138(%rsp)
    72009a4c:	00 
    72009a4d:	be 92 00 00 00       	mov    $0x92,%esi
    72009a52:	48 8b 54 24 30       	mov    0x30(%rsp),%rdx
    72009a57:	89 84 24 d0 00 00 00 	mov    %eax,0xd0(%rsp)
    72009a5e:	48 8b 84 24 d0 00 00 	mov    0xd0(%rsp),%rax
    72009a65:	00 
    72009a66:	48 8d 7a 68          	lea    0x68(%rdx),%rdi
    72009a6a:	48 89 84 24 30 01 00 	mov    %rax,0x130(%rsp)
    72009a71:	00 
    72009a72:	e8 d1 c3 ff ff       	callq  72005e48 <opnd_create_rel_addr@plt>
    72009a77:	48 8b 8c 24 38 01 00 	mov    0x138(%rsp),%rcx
    72009a7e:	00 
    72009a7f:	48 89 d6             	mov    %rdx,%rsi
    72009a82:	89 84 24 d0 00 00 00 	mov    %eax,0xd0(%rsp)
    72009a89:	48 89 94 24 d8 00 00 	mov    %rdx,0xd8(%rsp)
    72009a90:	00 
    72009a91:	4c 8b 84 24 d0 00 00 	mov    0xd0(%rsp),%r8
    72009a98:	00 
    72009a99:	49 89 f1             	mov    %rsi,%r9
    72009a9c:	48 89 94 24 48 01 00 	mov    %rdx,0x148(%rsp)
    72009aa3:	00 
    72009aa4:	48 8b 84 24 30 01 00 	mov    0x130(%rsp),%rax
    72009aab:	00 
    72009aac:	be 08 00 00 00       	mov    $0x8,%esi
    72009ab1:	8b 94 24 30 01 00 00 	mov    0x130(%rsp),%edx
    72009ab8:	4c 89 ff             	mov    %r15,%rdi
    72009abb:	48 89 4c 24 08       	mov    %rcx,0x8(%rsp)
    72009ac0:	4c 89 84 24 40 01 00 	mov    %r8,0x140(%rsp)
    72009ac7:	00 
    72009ac8:	48 89 04 24          	mov    %rax,(%rsp)
    72009acc:	e8 17 c9 ff ff       	callq  720063e8 <instr_create_1dst_2src@plt>
    72009ad1:	48 8b 74 24 68       	mov    0x68(%rsp),%rsi
    72009ad6:	48 8b 7c 24 48       	mov    0x48(%rsp),%rdi
    72009adb:	48 89 c2             	mov    %rax,%rdx
    72009ade:	e8 e5 c7 ff ff       	callq  720062c8 <instrlist_meta_preinsert@plt>
    72009ae3:	0f b6 7d 18          	movzbl 0x18(%rbp),%edi
    72009ae7:	e8 3c cb ff ff       	callq  72006628 <opnd_create_reg@plt>
    72009aec:	48 8b bc 24 80 00 00 	mov    0x80(%rsp),%rdi
    72009af3:	00 
    72009af4:	89 84 24 d0 00 00 00 	mov    %eax,0xd0(%rsp)
    72009afb:	be 92 00 00 00       	mov    $0x92,%esi
    72009b00:	48 8b 84 24 d0 00 00 	mov    0xd0(%rsp),%rax
    72009b07:	00 
    72009b08:	48 89 94 24 d8 00 00 	mov    %rdx,0xd8(%rsp)
    72009b0f:	00 
    72009b10:	48 89 94 24 38 01 00 	mov    %rdx,0x138(%rsp)
    72009b17:	00 
    72009b18:	48 89 84 24 30 01 00 	mov    %rax,0x130(%rsp)
    72009b1f:	00 
    72009b20:	e8 23 c3 ff ff       	callq  72005e48 <opnd_create_rel_addr@plt>
    72009b25:	48 8b 8c 24 38 01 00 	mov    0x138(%rsp),%rcx
    72009b2c:	00 
    72009b2d:	48 89 d6             	mov    %rdx,%rsi
    72009b30:	89 84 24 d0 00 00 00 	mov    %eax,0xd0(%rsp)
    72009b37:	48 89 94 24 d8 00 00 	mov    %rdx,0xd8(%rsp)
    72009b3e:	00 
    72009b3f:	4c 8b 84 24 d0 00 00 	mov    0xd0(%rsp),%r8
    72009b46:	00 
    72009b47:	49 89 f1             	mov    %rsi,%r9
    72009b4a:	48 89 94 24 48 01 00 	mov    %rdx,0x148(%rsp)
    72009b51:	00 
    72009b52:	8b 94 24 30 01 00 00 	mov    0x130(%rsp),%edx
    72009b59:	be 0e 00 00 00       	mov    $0xe,%esi
    72009b5e:	4c 89 ff             	mov    %r15,%rdi
    72009b61:	4c 89 84 24 40 01 00 	mov    %r8,0x140(%rsp)
    72009b68:	00 
    72009b69:	e8 4a c3 ff ff       	callq  72005eb8 <instr_create_0dst_2src@plt>
    72009b6e:	48 8b 74 24 68       	mov    0x68(%rsp),%rsi
    72009b73:	48 8b 7c 24 48       	mov    0x48(%rsp),%rdi
    72009b78:	48 89 c2             	mov    %rax,%rdx
    72009b7b:	e8 48 c7 ff ff       	callq  720062c8 <instrlist_meta_preinsert@plt>
    72009b80:	48 8b 7c 24 68       	mov    0x68(%rsp),%rdi
    72009b85:	e8 5e ca ff ff       	callq  720065e8 <opnd_create_instr@plt>
    72009b8a:	48 89 d1             	mov    %rdx,%rcx
    72009b8d:	89 84 24 d0 00 00 00 	mov    %eax,0xd0(%rsp)
    72009b94:	48 89 94 24 d8 00 00 	mov    %rdx,0xd8(%rsp)
    72009b9b:	00 
    72009b9c:	48 8b 94 24 d0 00 00 	mov    0xd0(%rsp),%rdx
    72009ba3:	00 
    72009ba4:	be 9c 00 00 00       	mov    $0x9c,%esi
    72009ba9:	4c 89 ff             	mov    %r15,%rdi
    72009bac:	48 89 8c 24 38 01 00 	mov    %rcx,0x138(%rsp)
    72009bb3:	00 
    72009bb4:	48 89 94 24 30 01 00 	mov    %rdx,0x130(%rsp)
    72009bbb:	00 
    72009bbc:	e8 a7 c9 ff ff       	callq  72006568 <instr_create_0dst_1src@plt>
    72009bc1:	48 8b 74 24 68       	mov    0x68(%rsp),%rsi
    72009bc6:	48 8b 7c 24 48       	mov    0x48(%rsp),%rdi
    72009bcb:	48 89 c2             	mov    %rax,%rdx
    72009bce:	e8 f5 c6 ff ff       	callq  720062c8 <instrlist_meta_preinsert@plt>
    72009bd3:	80 7c 24 73 00       	cmpb   $0x0,0x73(%rsp)
    72009bd8:	74 1c                	je     72009bf6 <instrument_umbra_code+0x1926>
    72009bda:	48 8b 4c 24 30       	mov    0x30(%rsp),%rcx
    72009bdf:	44 8b 49 30          	mov    0x30(%rcx),%r9d
    72009be3:	45 85 c9             	test   %r9d,%r9d
    72009be6:	74 0e                	je     72009bf6 <instrument_umbra_code+0x1926>
    72009be8:	48 8b 03             	mov    (%rbx),%rax
    72009beb:	48 83 78 30 01       	cmpq   $0x1,0x30(%rax)
    72009bf0:	0f 86 fb 08 00 00    	jbe    7200a4f1 <instrument_umbra_code+0x2221>
    72009bf6:	48 8b bc 24 80 00 00 	mov    0x80(%rsp),%rdi
    72009bfd:	00 
    72009bfe:	be 92 00 00 00       	mov    $0x92,%esi
    72009c03:	e8 40 c2 ff ff       	callq  72005e48 <opnd_create_rel_addr@plt>
    72009c08:	89 84 24 d0 00 00 00 	mov    %eax,0xd0(%rsp)
    72009c0f:	48 8b 84 24 d0 00 00 	mov    0xd0(%rsp),%rax
    72009c16:	00 
    72009c17:	48 89 94 24 d8 00 00 	mov    %rdx,0xd8(%rsp)
    72009c1e:	00 
    72009c1f:	48 89 94 24 38 01 00 	mov    %rdx,0x138(%rsp)
    72009c26:	00 
    72009c27:	48 89 84 24 30 01 00 	mov    %rax,0x130(%rsp)
    72009c2e:	00 
    72009c2f:	0f b6 7d 18          	movzbl 0x18(%rbp),%edi
    72009c33:	e8 f0 c9 ff ff       	callq  72006628 <opnd_create_reg@plt>
    72009c38:	48 8b 8c 24 38 01 00 	mov    0x138(%rsp),%rcx
    72009c3f:	00 
    72009c40:	48 89 d6             	mov    %rdx,%rsi
    72009c43:	89 84 24 d0 00 00 00 	mov    %eax,0xd0(%rsp)
    72009c4a:	48 89 94 24 d8 00 00 	mov    %rdx,0xd8(%rsp)
    72009c51:	00 
    72009c52:	4c 8b 84 24 d0 00 00 	mov    0xd0(%rsp),%r8
    72009c59:	00 
    72009c5a:	49 89 f1             	mov    %rsi,%r9
    72009c5d:	48 89 94 24 48 01 00 	mov    %rdx,0x148(%rsp)
    72009c64:	00 
    72009c65:	8b 94 24 30 01 00 00 	mov    0x130(%rsp),%edx
    72009c6c:	4c 89 ff             	mov    %r15,%rdi
    72009c6f:	be 38 00 00 00       	mov    $0x38,%esi
    72009c74:	4c 89 84 24 40 01 00 	mov    %r8,0x140(%rsp)
    72009c7b:	00 
    72009c7c:	e8 d7 cc ff ff       	callq  72006958 <instr_create_1dst_1src@plt>
    72009c81:	48 8b 74 24 68       	mov    0x68(%rsp),%rsi
    72009c86:	48 8b 7c 24 48       	mov    0x48(%rsp),%rdi
    72009c8b:	48 89 c2             	mov    %rax,%rdx
    72009c8e:	e8 35 c6 ff ff       	callq  720062c8 <instrlist_meta_preinsert@plt>
    72009c93:	e9 f3 f0 ff ff       	jmpq   72008d8b <instrument_umbra_code+0xabb>
    72009c98:	0f 1f 84 00 00 00 00 	nopl   0x0(%rax,%rax,1)
    72009c9f:	00 
    72009ca0:	48 8b 01             	mov    (%rcx),%rax
    72009ca3:	ba 05 00 00 00       	mov    $0x5,%edx
    72009ca8:	8b 78 20             	mov    0x20(%rax),%edi
    72009cab:	48 8b 70 28          	mov    0x28(%rax),%rsi
    72009caf:	e8 54 cc ff ff       	callq  72006908 <opnd_uses_reg@plt>
    72009cb4:	85 c0                	test   %eax,%eax
    72009cb6:	0f 84 53 06 00 00    	je     7200a30f <instrument_umbra_code+0x203f>
    72009cbc:	49 8b 94 24 60 04 00 	mov    0x460(%r12),%rdx
    72009cc3:	00 
    72009cc4:	48 89 94 24 b8 00 00 	mov    %rdx,0xb8(%rsp)
    72009ccb:	00 
    72009ccc:	48 89 53 38          	mov    %rdx,0x38(%rbx)
    72009cd0:	e9 79 e8 ff ff       	jmpq   7200854e <instrument_umbra_code+0x27e>
    72009cd5:	8b bc 24 cc 00 00 00 	mov    0xcc(%rsp),%edi
    72009cdc:	e8 47 c9 ff ff       	callq  72006628 <opnd_create_reg@plt>
    72009ce1:	48 8b 5c 24 30       	mov    0x30(%rsp),%rbx
    72009ce6:	89 84 24 d0 00 00 00 	mov    %eax,0xd0(%rsp)
    72009ced:	be 90 00 00 00       	mov    $0x90,%esi
    72009cf2:	48 8b 84 24 d0 00 00 	mov    0xd0(%rsp),%rax
    72009cf9:	00 
    72009cfa:	48 89 94 24 d8 00 00 	mov    %rdx,0xd8(%rsp)
    72009d01:	00 
    72009d02:	48 89 94 24 48 01 00 	mov    %rdx,0x148(%rsp)
    72009d09:	00 
    72009d0a:	8b 8b 30 01 00 00    	mov    0x130(%rbx),%ecx
    72009d10:	48 89 84 24 40 01 00 	mov    %rax,0x140(%rsp)
    72009d17:	00 
    72009d18:	b8 ff ff ff ff       	mov    $0xffffffff,%eax
    72009d1d:	d3 e0                	shl    %cl,%eax
    72009d1f:	48 63 f8             	movslq %eax,%rdi
    72009d22:	e8 a1 c0 ff ff       	callq  72005dc8 <opnd_create_immed_int@plt>
    72009d27:	48 8b 8c 24 48 01 00 	mov    0x148(%rsp),%rcx
    72009d2e:	00 
    72009d2f:	48 89 d6             	mov    %rdx,%rsi
    72009d32:	89 84 24 d0 00 00 00 	mov    %eax,0xd0(%rsp)
    72009d39:	48 89 94 24 d8 00 00 	mov    %rdx,0xd8(%rsp)
    72009d40:	00 
    72009d41:	4c 8b 84 24 d0 00 00 	mov    0xd0(%rsp),%r8
    72009d48:	00 
